(dp0
S'344'
p1
(lp2
Vamp
p3
aVability
p4
aVamp
p5
aVoccasion
p6
aV#InternationalNelsonMandelaDay
p7
asS'0'
p8
(lp9
Vchieftain
p10
aVleader
p11
asS'346'
p12
(lp13
VBirthday
p14
aV#DuniyaRashmi
p15
asS'347'
p16
(lp17
Vdreams
p18
aVcome
p19
asS'340'
p20
(lp21
Vpast
p22
aVmoves
p23
aVsystem
p24
aVhttps://t.co/ceqLpknxpR
p25
aVtitles
p26
aVchampion
p27
aVFederer
p28
asS'341'
p29
(lp30
Vawards
p31
asS'342'
p32
(lp33
Vicons
p34
aV#Cinema
p35
aVamp
p36
asS'343'
p37
(lp38
V#BirthAnniversary
p39
asS'348'
p40
(lp41
sS'349'
p42
(lp43
V@BJP4Karnataka
p44
aV#OneUnionManyFlags
p45
aVAnti-Kannada
p46
aVactions
p47
asS'298'
p48
(lp49
Vhealth
p50
asS'299'
p51
(lp52
VLife
p53
asS'296'
p54
(lp55
Vsatellite
p56
aVlaunch
p57
aVsearch
p58
aVrelay
p59
aV#GSAT
p60
asS'297'
p61
(lp62
VBirthday
p63
asS'294'
p64
(lp65
VRecord
p66
asS'295'
p67
(lp68
sS'292'
p69
(lp70
Vlanguage
p71
aVMusic
p72
aVlight
p73
aV#Yoga
p74
asS'293'
p75
(lp76
sS'290'
p77
(lp78
Vrevolution
p79
asS'291'
p80
(lp81
Vwho
p82
aVstarred
p83
asS'199'
p84
(lp85
Vvoid
p86
asS'198'
p87
(lp88
sS'195'
p89
(lp90
VMarch
p91
aVIndia
p92
aVJuly
p93
asS'194'
p94
(lp95
Vteachings
p96
aVthreat
p97
aVpeace
p98
asS'197'
p99
(lp100
sS'196'
p101
(lp102
VMinister
p103
aVhe
p104
aVoldest
p105
aVoutlook.An
p106
asS'191'
p107
(lp108
VJourney
p109
asS'190'
p110
(lp111
Vyou.The
p112
aVgift
p113
aVTributes
p114
aVwealth
p115
asS'193'
p116
(lp117
sS'192'
p118
(lp119
sS'270'
p120
(lp121
Vhttps://t.co/zbEYjmZBY4
p122
aV@yuvakannadigas
p123
aV@TheParulYadav
p124
aVbirthday
p125
aVdrive
p126
aVplantation
p127
asS'271'
p128
(lp129
Vendeavours
p130
aVsuccess
p131
asS'272'
p132
(lp133
Vmake
p134
asS'273'
p135
(lp136
VAward
p137
aVwriters
p138
asS'274'
p139
(lp140
VB'day
p141
asS'275'
p142
(lp143
sS'276'
p144
(lp145
Vlove
p146
asS'277'
p147
(lp148
sS'278'
p149
(lp150
VVivah
p151
asS'279'
p152
(lp153
sS'108'
p154
(lp155
sS'109'
p156
(lp157
VIndustry
p158
aVacumen
p159
asS'102'
p160
(lp161
Vhttps://t.co/Ft0oWSlVvC
p162
asS'103'
p163
(lp164
VIndia
p165
aVFighter
p166
aVScience
p167
aVtheme
p168
asS'100'
p169
(lp170
VDarshan
p171
aVrunner
p172
asS'101'
p173
(lp174
Vamp
p175
asS'106'
p176
(lp177
Vage
p178
aVamp
p179
aVRaghu
p180
aVbrand
p181
asS'107'
p182
(lp183
sS'104'
p184
(lp185
sS'105'
p186
(lp187
VAwards
p188
aVAward
p189
aVteams
p190
aVMPC
p191
asS'39'
p192
(lp193
sS'38'
p194
(lp195
Vyou
p196
aVlook
p197
aVare
p198
asS'33'
p199
(lp200
sS'32'
p201
(lp202
VDevi
p203
aVprodigy
p204
asS'31'
p205
(lp206
VHangal
p207
aVsinger
p208
asS'30'
p209
(lp210
VLabour
p211
aVsustainer
p212
asS'37'
p213
(lp214
Vvirtue
p215
asS'36'
p216
(lp217
sS'35'
p218
(lp219
sS'34'
p220
(lp221
Vwork
p222
aVhome
p223
asS'339'
p224
(lp225
sS'338'
p226
(lp227
sS'335'
p228
(lp229
sS'334'
p230
(lp231
sS'337'
p232
(lp233
sS'336'
p234
(lp235
sS'331'
p236
(lp237
sS'330'
p238
(lp239
Vattack
p240
aVfamilies
p241
asS'333'
p242
(lp243
Vhome
p244
aVJagruth
p245
asS'332'
p246
(lp247
Vkingship
p248
asS'345'
p249
(lp250
sS'6'
p251
(lp252
Vspot
p253
asS'99'
p254
(lp255
Vwinner
p256
aVRanganath
p257
asS'98'
p258
(lp259
Vdevotion
p260
aVgoal
p261
aVN
p262
aVMedal
p263
asS'91'
p264
(lp265
sS'90'
p266
(lp267
VPlayer
p268
aVHumpy
p269
asS'93'
p270
(lp271
sS'92'
p272
(lp273
V@imVkohli
p274
aVactor
p275
aVwho
p276
aVworks
p277
asS'95'
p278
(lp279
Vmake
p280
asS'94'
p281
(lp282
Vwriter
p283
aVTest
p284
aV200
p285
aVpopular
p286
asS'97'
p287
(lp288
Vpart
p289
aVChallenges
p290
asS'96'
p291
(lp292
sS'238'
p293
(lp294
Vbirthday
p295
asS'239'
p296
(lp297
Veveryone
p298
aVhttps://t.co/gek2SMd4Zk
p299
aVFuture
p300
aVPlanet
p301
aVBirthday
p302
aVworld
p303
aVNews
p304
asS'234'
p305
(lp306
Vsafety
p307
asS'235'
p308
(lp309
VJayanthi
p310
asS'236'
p311
(lp312
V#InternationalDanceDay
p313
asS'237'
p314
(lp315
VYou
p316
aVfounder
p317
aVworker
p318
aV#LabourDay
p319
asS'230'
p320
(lp321
Vamp
p322
aVmatters
p323
asS'231'
p324
(lp325
V#FerozKhan
p326
asS'232'
p327
(lp328
sS'233'
p329
(lp330
Verror
p331
aVsafe
p332
aVworld
p333
aVknow
p334
asS'1'
p335
(lp336
sS'146'
p337
(lp338
Vlife
p339
asS'147'
p340
(lp341
sS'144'
p342
(lp343
Vcommunities
p344
aVvalues
p345
aVforests
p346
asS'145'
p347
(lp348
sS'142'
p349
(lp350
sS'143'
p351
(lp352
Vmovements
p353
asS'140'
p354
(lp355
sS'141'
p356
(lp357
sS'148'
p358
(lp359
sS'149'
p360
(lp361
Vlives
p362
asS'133'
p363
(lp364
sS'132'
p365
(lp366
Vtime
p367
asS'131'
p368
(lp369
Vday
p370
aV#Holi
p371
asS'130'
p372
(lp373
V@robbieuthappa
p374
asS'137'
p375
(lp376
Vamp
p377
asS'136'
p378
(lp379
Vinspiration
p380
aVher.A
p381
asS'135'
p382
(lp383
sS'134'
p384
(lp385
Vbowler
p386
aV@Vinay_Kumar_R
p387
aVwho
p388
aVrelies
p389
asS'139'
p390
(lp391
sS'138'
p392
(lp393
Vyou
p394
aVSir
p395
asS'24'
p396
(lp397
sS'25'
p398
(lp399
Vrank
p400
aVMarshal
p401
aVofficers
p402
asS'26'
p403
(lp404
Vcontribution
p405
aVhttps://t.co/GLLb0uOxC3
p406
aVartist
p407
asS'27'
p408
(lp409
VPadukone
p410
aVplayer
p411
aVlaurels
p412
asS'20'
p413
(lp414
sS'21'
p415
(lp416
Vcome
p417
asS'22'
p418
(lp419
VI
p420
aVget
p421
aVway
p422
asS'23'
p423
(lp424
sS'28'
p425
(lp426
VRevolution
p427
aVright
p428
asS'29'
p429
(lp430
VFreedom
p431
aVright
p432
asS'379'
p433
(lp434
Vfuture
p435
aVfuels
p436
aVimportance
p437
asS'378'
p438
(lp439
Vcreature
p440
aVplanet
p441
asS'371'
p442
(lp443
Vtake
p444
asS'370'
p445
(lp446
VRevolution
p447
aVPunyatithi
p448
aVFather
p449
asS'373'
p450
(lp451
sS'372'
p452
(lp453
V#LungCancer
p454
asS'375'
p455
(lp456
Vhttps://t.co/oeSVYcsc7Q
p457
asS'374'
p458
(lp459
Vday
p460
aVweek
p461
aVBeer
p462
aVtastes
p463
asS'377'
p464
(lp465
Vlions
p466
asS'376'
p467
(lp468
Vhttps://t.co/nMAVBgXeAD
p469
aVimpetus
p470
aVdrive
p471
aVOurs
p472
asS'393'
p473
(lp474
sS'392'
p475
(lp476
Vsoul
p477
aVfamily
p478
asS'88'
p479
(lp480
Vharmony
p481
aVIndia
p482
asS'89'
p483
(lp484
Vpersonality
p485
asS'82'
p486
(lp487
sS'181'
p488
(lp489
V#LordRama
p490
aVDashavataras
p491
aVoccasion
p492
aV#Vishnu
p493
aVbirth
p494
asS'80'
p495
(lp496
VProf.Mahadevappa
p497
asS'81'
p498
(lp499
V#IPLAuction
p500
aVpurchases
p501
asS'86'
p502
(lp503
Vplayer
p504
aVfigure
p505
asS'87'
p506
(lp507
Vcall
p508
aVhe
p509
aVstepped
p510
aVpassion
p511
asS'84'
p512
(lp513
g420
aVm
p514
asS'85'
p515
(lp516
sS'7'
p517
(lp518
VBlind
p519
aVnot
p520
asS'245'
p521
(lp522
VBharat
p523
asS'244'
p524
(lp525
sS'247'
p526
(lp527
Vimportance
p528
aVresearch
p529
aVnation
p530
asS'246'
p531
(lp532
sS'241'
p533
(lp534
Vgift
p535
asS'240'
p536
(lp537
sS'243'
p538
(lp539
Vcharge
p540
aVt
p541
aVDengue
p542
asS'242'
p543
(lp544
VFamily
p545
aVthing
p546
asS'249'
p547
(lp548
Vprosperity
p549
aVamp
p550
asS'248'
p551
(lp552
Vmeans
p553
aVMuseums
p554
asS'179'
p555
(lp556
V#Actor
p557
asS'178'
p558
(lp559
Vparts
p560
asS'177'
p561
(lp562
Vlot
p563
aVhttps://t.co/xY69mIrUqf
p564
asS'176'
p565
(lp566
V#FilmfareAward
p567
asS'175'
p568
(lp569
VHe
p570
aVacted
p571
asS'174'
p572
(lp573
Vhearts
p574
asS'173'
p575
(lp576
Vbattle
p577
asS'172'
p578
(lp579
sS'171'
p580
(lp581
sS'170'
p582
(lp583
Vroaches
p584
aVcustomer
p585
asS'182'
p586
(lp587
sS'183'
p588
(lp589
V#KishoriAmonkar
p590
aVsets
p591
asS'180'
p592
(lp593
sS'2'
p594
(lp595
Vroles
p596
asS'186'
p597
(lp598
sS'187'
p599
(lp600
sS'184'
p601
(lp602
Vremain
p603
asS'185'
p604
(lp605
sS'188'
p606
(lp607
Vact
p608
aV#SaltMarch
p609
asS'189'
p610
(lp611
sS'11'
p612
(lp613
VWe
p614
aVIndians
p615
asS'10'
p616
(lp617
sS'13'
p618
(lp619
Vloss
p620
aVlife
p621
asS'12'
p622
(lp623
Vnature
p624
asS'15'
p625
(lp626
sS'14'
p627
(lp628
sS'17'
p629
(lp630
Vfailure
p631
asS'16'
p632
(lp633
Vlife
p634
asS'19'
p635
(lp636
sS'18'
p637
(lp638
Vsuits
p639
asS'62'
p640
(lp641
Vway
p642
aVsaxophonist
p643
aVhttps://t.co/tTV5ZgzFEl
p644
asS'322'
p645
(lp646
VGeetha
p647
asS'323'
p648
(lp649
Vbirthday
p650
asS'320'
p651
(lp652
Vfriend
p653
asS'321'
p654
(lp655
Vwho
p656
aVnovelist
p657
asS'326'
p658
(lp659
Vfilmmaker
p660
asS'327'
p661
(lp662
sS'324'
p663
(lp664
Vday
p665
aVhttps://t.co/YeE3giurFh
p666
asS'325'
p667
(lp668
VPurnima
p669
asS'328'
p670
(lp671
Vmovies
p672
asS'329'
p673
(lp674
Vday
p675
aV#WorldPopulationDay
p676
asS'201'
p677
(lp678
Vmassacre
p679
aVmartyrs
p680
asS'200'
p681
(lp682
sS'203'
p683
(lp684
V#NishaMillet
p685
aVwoman
p686
asS'202'
p687
(lp688
Vremain
p689
asS'205'
p690
(lp691
Vbirthday
p692
aVhttps://t.co/7hEEMCBmbw
p693
asS'204'
p694
(lp695
sS'207'
p696
(lp697
Vobservance
p698
aVDay
p699
asS'206'
p700
(lp701
Vawards
p702
aVIt
p703
aVmoment
p704
asS'209'
p705
(lp706
Vmeans
p707
aVBooks
p708
aVbridges
p709
asS'208'
p710
(lp711
sS'77'
p712
(lp713
Vcoaching
p714
asS'76'
p715
(lp716
Vwork
p717
aVbusinessman
p718
asS'75'
p719
(lp720
sS'74'
p721
(lp722
Vhand
p723
aVimagination
p724
asS'73'
p725
(lp726
VHe
p727
aVname
p728
asS'72'
p729
(lp730
VKeerthi
p731
aVcommentator
p732
asS'71'
p733
(lp734
VGawai
p735
aVmusician
p736
asS'70'
p737
(lp738
Vfear
p739
asS'79'
p740
(lp741
VIndustry
p742
asS'78'
p743
(lp744
sS'8'
p745
(lp746
sS'120'
p747
(lp748
sS'121'
p749
(lp750
sS'122'
p751
(lp752
Vworlds
p753
asS'123'
p754
(lp755
sS'124'
p756
(lp757
sS'125'
p758
(lp759
Vamp
p760
aVpapers
p761
asS'126'
p762
(lp763
Vrole
p764
aVPoojary
p765
aVplayer
p766
aVreigning
p767
aVawesome
p768
asS'127'
p769
(lp770
Vperformer
p771
aVhttps://t.co/m6WsYZdT02
p772
aVmeters
p773
aVevents
p774
asS'128'
p775
(lp776
Vboundaries
p777
asS'129'
p778
(lp779
sS'319'
p780
(lp781
VReturns
p782
aVwishes
p783
asS'318'
p784
(lp785
Vcricket
p786
asS'313'
p787
(lp788
Vpersonality
p789
aVSathyu
p790
asS'312'
p791
(lp792
Vexperiences
p793
aVBengalurean
p794
aVTenkila
p795
asS'311'
p796
(lp797
sS'310'
p798
(lp799
sS'317'
p800
(lp801
Vlegend
p802
asS'316'
p803
(lp804
sS'315'
p805
(lp806
V@YuvaKannadigas
p807
aVwishes
p808
asS'314'
p809
(lp810
sS'3'
p811
(lp812
Vrace
p813
aVbuffalo
p814
asS'368'
p815
(lp816
sS'369'
p817
(lp818
sS'366'
p819
(lp820
V#SaveTheTiger
p821
asS'367'
p822
(lp823
VO'Dwyer
p824
asS'364'
p825
(lp826
sS'365'
p827
(lp828
sS'362'
p829
(lp830
Vtreatment
p831
asS'363'
p832
(lp833
Vwrld
p834
asS'360'
p835
(lp836
Vtributes
p837
aVus
p838
aV@YuvaKannadigas
p839
aVinspiration
p840
aV@YuvaKannadigas
p841
asS'361'
p842
(lp843
V#HappyBirthdaySaiKumar
p844
aVhttps://t.co/lCIKDbsaY1
p845
asS'380'
p846
(lp847
sS'381'
p848
(lp849
sS'382'
p850
(lp851
VFauj
p852
aVanniversary
p853
asS'383'
p854
(lp855
V#VijayLakshmiPandit
p856
asS'384'
p857
(lp858
VChairman
p859
aV#SudhaMurthy
p860
aVyouth
p861
aVPresident
p862
aVhttps://t.co/nt1g7gvfZL
p863
aVWriter
p864
asS'385'
p865
(lp866
Vothers
p867
aV#WorldHumanitarianDay
p868
aVlives
p869
aVservices
p870
aVworkers
p871
asS'386'
p872
(lp873
V#Malaria
p874
aVmosquitos
p875
asS'387'
p876
(lp877
sS'388'
p878
(lp879
Vways
p880
asS'389'
p881
(lp882
sS'60'
p883
(lp884
sS'61'
p885
(lp886
Vgame
p887
aVNobody
p888
asS'258'
p889
(lp890
Vfamily
p891
asS'259'
p892
(lp893
sS'64'
p894
(lp895
VV.
p896
aVmusician
p897
asS'65'
p898
(lp899
VHanumanthaiah
p900
aVMinister
p901
asS'66'
p902
(lp903
VRajamma
p904
aVtold
p905
asS'67'
p906
(lp907
g420
aVreceived
p908
aVeducation
p909
asS'68'
p910
(lp911
VHosmane
p912
aVscientist
p913
asS'69'
p914
(lp915
VMansur
p916
aVsinger
p917
asS'250'
p918
(lp919
VLife
p920
aVfragile
p921
asS'251'
p922
(lp923
Vlot
p924
aVCharm
p925
aVCondolences
p926
aVcelebration
p927
aVmost
p928
aVconnected
p929
asS'256'
p930
(lp931
sS'257'
p932
(lp933
sS'254'
p934
(lp935
VKarnataka
p936
aVState
p937
aVpersonnel
p938
aVoperations
p939
aVDestination
p940
asS'255'
p941
(lp942
VBirthday.Stay
p943
asS'168'
p944
(lp945
sS'169'
p946
(lp947
VCCD
p948
asS'164'
p949
(lp950
V#NationalAward
p951
asS'165'
p952
(lp953
sS'166'
p954
(lp955
Vactor
p956
aV@PrajwalDevaraj
p957
asS'167'
p958
(lp959
V@sprabhu86
p960
asS'160'
p961
(lp962
VLit
p963
asS'161'
p964
(lp965
Vwriters
p966
aVtalents
p967
asS'162'
p968
(lp969
Vgame
p970
asS'163'
p971
(lp972
sS'9'
p973
(lp974
Vcontemplate
p975
asS'357'
p976
(lp977
Vsouls
p978
asS'356'
p979
(lp980
sS'355'
p981
(lp982
sS'354'
p983
(lp984
sS'353'
p985
(lp986
sS'352'
p987
(lp988
Vgame.From
p989
aVdates
p990
asS'351'
p991
(lp992
VPresident
p993
aVIndia
p994
asS'350'
p995
(lp996
VRevolution
p997
asS'359'
p998
(lp999
V#TuesdayThought
p1000
asS'358'
p1001
(lp1002
Vscientist
p1003
aVdemise
p1004
asS'216'
p1005
(lp1006
sS'217'
p1007
(lp1008
Vastronomy
p1009
aVexperiments
p1010
asS'214'
p1011
(lp1012
sS'215'
p1013
(lp1014
Vrecovery
p1015
asS'212'
p1016
(lp1017
VThere
p1018
asS'213'
p1019
(lp1020
Vcategory
p1021
asS'210'
p1022
(lp1023
Vcakewalk
p1024
aV#Marathon
p1025
asS'211'
p1026
(lp1027
VSafe
p1028
aV2016
p1029
asS'218'
p1030
(lp1031
VMay
p1032
aVGaming
p1033
asS'219'
p1034
(lp1035
VStartups
p1036
aVIndia
p1037
aVboost
p1038
asS'289'
p1039
(lp1040
Vwelcome
p1041
asS'288'
p1042
(lp1043
Vyear
p1044
asS'4'
p1045
(lp1046
Vgirl
p1047
aVwhole
p1048
asS'281'
p1049
(lp1050
Vpeople
p1051
aVtype
p1052
asS'280'
p1053
(lp1054
sS'283'
p1055
(lp1056
VDentist
p1057
asS'282'
p1058
(lp1059
VWe
p1060
aVwish
p1061
aV@ShamitaMalnad
p1062
aV#HappyBirthday
p1063
asS'285'
p1064
(lp1065
Vcandidates
p1066
asS'284'
p1067
(lp1068
Vactor
p1069
aVLG
p1070
asS'287'
p1071
(lp1072
sS'286'
p1073
(lp1074
sS'263'
p1075
(lp1076
Vvictims
p1077
aVwho
p1078
asS'262'
p1079
(lp1080
sS'261'
p1081
(lp1082
sS'260'
p1083
(lp1084
VLIFE
p1085
aVreason
p1086
asS'267'
p1087
(lp1088
sS'266'
p1089
(lp1090
Vstraight
p1091
aVwin
p1092
asS'265'
p1093
(lp1094
sS'264'
p1095
(lp1096
sS'269'
p1097
(lp1098
Vresponsibility
p1099
asS'268'
p1100
(lp1101
Vhome
p1102
asS'59'
p1103
(lp1104
VBopanna
p1105
aVplayer
p1106
asS'58'
p1107
(lp1108
Vbridge
p1109
asS'55'
p1110
(lp1111
sS'54'
p1112
(lp1113
Vsuccess
p1114
asS'57'
p1115
(lp1116
Vsolver
p1117
asS'56'
p1118
(lp1119
sS'51'
p1120
(lp1121
sS'50'
p1122
(lp1123
VMadhvacharya
p1124
asS'53'
p1125
(lp1126
Vduty
p1127
asS'52'
p1128
(lp1129
Vsociety
p1130
asS'63'
p1131
(lp1132
Vfilm
p1133
aVhttps://t.co/Qjs52D0o2E
p1134
asS'115'
p1135
(lp1136
Vwonder
p1137
aVaward
p1138
aVBritain
p1139
asS'252'
p1140
(lp1141
sS'117'
p1142
(lp1143
Vcontributions
p1144
aVConservation
p1145
asS'116'
p1146
(lp1147
sS'111'
p1148
(lp1149
Vcinema
p1150
asS'110'
p1151
(lp1152
Vopportunity
p1153
asS'113'
p1154
(lp1155
Vtea
p1156
asS'253'
p1157
(lp1158
Vwho
p1159
aVyoung
p1160
aVHappyBirthday
p1161
asS'119'
p1162
(lp1163
sS'118'
p1164
(lp1165
Vleader
p1166
aVKatti
p1167
aVwoman
p1168
asS'308'
p1169
(lp1170
V#SwamiVivekananda
p1171
aVTithi
p1172
asS'309'
p1173
(lp1174
sS'300'
p1175
(lp1176
Vus
p1177
aVsocial
p1178
asS'301'
p1179
(lp1180
VThey
p1181
aVincarnations
p1182
asS'302'
p1183
(lp1184
Vmankind
p1185
aVservice
p1186
aVdoctors
p1187
asS'303'
p1188
(lp1189
sS'304'
p1190
(lp1191
sS'305'
p1192
(lp1193
VCountry
p1194
aVIndia
p1195
asS'306'
p1196
(lp1197
Vjokes
p1198
aVr
p1199
asS'307'
p1200
(lp1201
Vactor
p1202
aV#KomalKumar
p1203
asS'229'
p1204
(lp1205
sS'228'
p1206
(lp1207
sS'227'
p1208
(lp1209
sS'226'
p1210
(lp1211
sS'225'
p1212
(lp1213
sS'224'
p1214
(lp1215
Vhttps://t.co/NR6vKJt1RN
p1216
aVu
p1217
aVhappiness
p1218
asS'223'
p1219
(lp1220
g1217
aVreturns
p1221
aVmaa
p1222
asS'222'
p1223
(lp1224
Vlives
p1225
asS'221'
p1226
(lp1227
Vman
p1228
aVA
p1229
asS'220'
p1230
(lp1231
sS'114'
p1232
(lp1233
Vby-product
p1234
asS'391'
p1235
(lp1236
sS'390'
p1237
(lp1238
Vsports
p1239
asS'151'
p1240
(lp1241
sS'150'
p1242
(lp1243
VSingh
p1244
aVday
p1245
aVmartyrdom
p1246
asS'153'
p1247
(lp1248
Vcome
p1249
asS'152'
p1250
(lp1251
Vcheer
p1252
aVlaughter
p1253
aVsunshine
p1254
aVwarmth
p1255
aVlove
p1256
asS'155'
p1257
(lp1258
sS'154'
p1259
(lp1260
sS'157'
p1261
(lp1262
VMarch
p1263
asS'156'
p1264
(lp1265
Vawards
p1266
asS'159'
p1267
(lp1268
Vage
p1269
asS'158'
p1270
(lp1271
V#SudhaRani
p1272
aV#Kuchipudi
p1273
asS'112'
p1274
(lp1275
sS'83'
p1276
(lp1277
Vfather
p1278
aVhttps://t.co/2lnPCK1rLc
p1279
asS'48'
p1280
(lp1281
sS'49'
p1282
(lp1283
VVishnu
p1284
aVthing
p1285
asS'46'
p1286
(lp1287
Vtheater
p1288
aVroots
p1289
asS'47'
p1290
(lp1291
Vtour
p1292
aVlimitations
p1293
asS'44'
p1294
(lp1295
sS'45'
p1296
(lp1297
sS'42'
p1298
(lp1299
Vhealth
p1300
aVsociety
p1301
asS'43'
p1302
(lp1303
g420
aVworried
p1304
asS'40'
p1305
(lp1306
sS'41'
p1307
(lp1308
sS'5'
p1309
(lp1310
VSoul
p1311
aVcontribution
p1312
aVmusic
p1313
as.