(dp0
S'344'
p1
(lp2
Vfood
p3
aVservice
p4
asS'0'
p5
(lp6
Vservice
p7
asS'346'
p8
(lp9
Vfood
p10
asS'347'
p11
(lp12
Vfood
p13
aVatmosphere
p14
asS'340'
p15
(lp16
Vfood
p17
aVatmosphere
p18
aVserve
p19
aVservice
p20
asS'341'
p21
(lp22
Vprice
p23
asS'342'
p24
(lp25
Vfood
p26
aVservice
p27
asS'343'
p28
(lp29
sS'348'
p30
(lp31
sS'349'
p32
(lp33
Vservice
p34
asS'298'
p35
(lp36
Vatmosphere
p37
asS'299'
p38
(lp39
Vfood
p40
asS'296'
p41
(lp42
Vservice
p43
asS'297'
p44
(lp45
Vfood
p46
asS'294'
p47
(lp48
Vservice
p49
asS'295'
p50
(lp51
sS'292'
p52
(lp53
Vfood
p54
aVatmosphere
p55
aVservice
p56
asS'293'
p57
(lp58
sS'290'
p59
(lp60
Vservice
p61
asS'291'
p62
(lp63
Vprice
p64
aVmilitary_service
p65
asS'199'
p66
(lp67
Vatmosphere
p68
asS'198'
p69
(lp70
sS'195'
p71
(lp72
Vfood
p73
aVambiance
p74
aVserve
p75
asS'194'
p76
(lp77
Vatmosphere
p78
aVservice
p79
asS'197'
p80
(lp81
sS'196'
p82
(lp83
Vfood
p84
aVservice
p85
asS'191'
p86
(lp87
Vserve
p88
asS'190'
p89
(lp90
Vprice
p91
aVatmosphere
p92
aVservice
p93
asS'193'
p94
(lp95
sS'192'
p96
(lp97
sS'270'
p98
(lp99
Vfood
p100
aVambiance
p101
aVserve
p102
asS'271'
p103
(lp104
Vservice
p105
asS'272'
p106
(lp107
Vfood
p108
asS'273'
p109
(lp110
Vprice
p111
aVservice
p112
asS'274'
p113
(lp114
sS'275'
p115
(lp116
sS'276'
p117
(lp118
Vservicing
p119
asS'277'
p120
(lp121
sS'278'
p122
(lp123
sS'279'
p124
(lp125
sS'108'
p126
(lp127
sS'109'
p128
(lp129
Vfood
p130
aVmilitary_service
p131
asS'102'
p132
(lp133
sS'103'
p134
(lp135
Vfood
p136
aVambiance
p137
aVservice
p138
asS'100'
p139
(lp140
Vservice
p141
asS'101'
p142
(lp143
Vfood
p144
asS'106'
p145
(lp146
Vfood
p147
aVatmosphere
p148
asS'107'
p149
(lp150
sS'104'
p151
(lp152
sS'105'
p153
(lp154
Vprice
p155
aVmilitary_service
p156
asS'39'
p157
(lp158
sS'38'
p159
(lp160
Vatmosphere
p161
aVprice
p162
asS'33'
p163
(lp164
sS'32'
p165
(lp166
Vfood
p167
asS'31'
p168
(lp169
Vprice
p170
asS'30'
p171
(lp172
Vservice
p173
asS'37'
p174
(lp175
Vprice
p176
asS'36'
p177
(lp178
sS'35'
p179
(lp180
sS'34'
p181
(lp182
Vmilitary_service
p183
aVservice
p184
asS'339'
p185
(lp186
sS'338'
p187
(lp188
sS'335'
p189
(lp190
sS'334'
p191
(lp192
sS'337'
p193
(lp194
sS'336'
p195
(lp196
sS'331'
p197
(lp198
sS'330'
p199
(lp200
Vmilitary_service
p201
aVservice
p202
asS'333'
p203
(lp204
Vmilitary_service
p205
asS'332'
p206
(lp207
Vatmosphere
p208
asS'345'
p209
(lp210
sS'6'
p211
(lp212
Vservice
p213
asS'99'
p214
(lp215
Vservice
p216
asS'98'
p217
(lp218
Vfood
p219
aVprice
p220
aVservice
p221
asS'91'
p222
(lp223
sS'90'
p224
(lp225
Vprice
p226
asS'93'
p227
(lp228
sS'92'
p229
(lp230
Vmilitary_service
p231
aVservice
p232
asS'95'
p233
(lp234
Vfood
p235
asS'94'
p236
(lp237
Vfood
p238
aVservice
p239
asS'97'
p240
(lp241
Vservice
p242
asS'96'
p243
(lp244
sS'238'
p245
(lp246
Vfood
p247
asS'239'
p248
(lp249
Vfood
p250
aVprice
p251
aVservice
p252
asS'234'
p253
(lp254
Vatmosphere
p255
asS'235'
p256
(lp257
sS'236'
p258
(lp259
sS'237'
p260
(lp261
Vservice
p262
asS'230'
p263
(lp264
Vfood
p265
asS'231'
p266
(lp267
sS'232'
p268
(lp269
sS'233'
p270
(lp271
Vfood
p272
aVserve
p273
aVservice
p274
asS'1'
p275
(lp276
sS'146'
p277
(lp278
Vfood
p279
asS'147'
p280
(lp281
sS'144'
p282
(lp283
Vambiance
p284
aVmonetary_value
p285
asS'145'
p286
(lp287
sS'142'
p288
(lp289
sS'143'
p290
(lp291
Vservice
p292
asS'140'
p293
(lp294
sS'141'
p295
(lp296
sS'148'
p297
(lp298
sS'149'
p299
(lp300
Vfood
p301
asS'133'
p302
(lp303
sS'132'
p304
(lp305
Vatmosphere
p306
asS'131'
p307
(lp308
Vservice
p309
asS'130'
p310
(lp311
sS'137'
p312
(lp313
Vfood
p314
asS'136'
p315
(lp316
Vfood
p317
asS'135'
p318
(lp319
sS'134'
p320
(lp321
Vprice
p322
aVmilitary_service
p323
aVservice
p324
asS'139'
p325
(lp326
sS'138'
p327
(lp328
Vservice
p329
asS'24'
p330
(lp331
sS'25'
p332
(lp333
Vmilitary_service
p334
aVservice
p335
asS'26'
p336
(lp337
Vservice
p338
asS'27'
p339
(lp340
Vprice
p341
aVatmosphere
p342
asS'20'
p343
(lp344
sS'21'
p345
(lp346
Vfood
p347
asS'22'
p348
(lp349
Vfood
p350
aVatmosphere
p351
aVserve
p352
asS'23'
p353
(lp354
sS'28'
p355
(lp356
Vambiance
p357
aVservice
p358
asS'29'
p359
(lp360
Vatmosphere
p361
aVambiance
p362
asS'379'
p363
(lp364
Vfood
p365
aVmonetary_value
p366
aVservice
p367
asS'378'
p368
(lp369
Vservice
p370
asS'371'
p371
(lp372
Vservice
p373
asS'370'
p374
(lp375
Vservice
p376
asS'373'
p377
(lp378
sS'372'
p379
(lp380
sS'375'
p381
(lp382
sS'374'
p383
(lp384
Vfood
p385
aVservice
p386
asS'377'
p387
(lp388
Vservice
p389
asS'376'
p390
(lp391
Vserve
p392
aVservice
p393
asS'393'
p394
(lp395
sS'392'
p396
(lp397
Vmilitary_service
p398
aVservice
p399
asS'88'
p400
(lp401
Vatmosphere
p402
aVambiance
p403
asS'89'
p404
(lp405
Vatmosphere
p406
asS'82'
p407
(lp408
sS'181'
p409
(lp410
Vservice
p411
asS'80'
p412
(lp413
sS'81'
p414
(lp415
Vprice
p416
asS'86'
p417
(lp418
Vprice
p419
aVserve
p420
asS'87'
p421
(lp422
Vfood
p423
aVprice
p424
aVservice
p425
asS'84'
p426
(lp427
Vfood
p428
aVatmosphere
p429
asS'85'
p430
(lp431
sS'7'
p432
(lp433
Vfood
p434
aVservice
p435
asS'245'
p436
(lp437
Vambiance
p438
asS'244'
p439
(lp440
sS'247'
p441
(lp442
Vmonetary_value
p443
aVservice
p444
aVmilitary_service
p445
asS'246'
p446
(lp447
sS'241'
p448
(lp449
Vprice
p450
asS'240'
p451
(lp452
sS'243'
p453
(lp454
Vfood
p455
aVprice
p456
aVatmosphere
p457
asS'242'
p458
(lp459
Vfood
p460
aVmilitary_service
p461
asS'249'
p462
(lp463
Vfood
p464
aVatmosphere
p465
asS'248'
p466
(lp467
Vservice
p468
asS'179'
p469
(lp470
sS'178'
p471
(lp472
Vambiance
p473
asS'177'
p474
(lp475
Vambiance
p476
asS'176'
p477
(lp478
sS'175'
p479
(lp480
Vfood
p481
aVprice
p482
asS'174'
p483
(lp484
Vfood
p485
asS'173'
p486
(lp487
Vservice
p488
asS'172'
p489
(lp490
sS'171'
p491
(lp492
sS'170'
p493
(lp494
Vservice
p495
asS'182'
p496
(lp497
sS'183'
p498
(lp499
Vservice
p500
asS'180'
p501
(lp502
sS'2'
p503
(lp504
Vservice
p505
asS'186'
p506
(lp507
sS'187'
p508
(lp509
sS'184'
p510
(lp511
Vprice
p512
asS'185'
p513
(lp514
sS'188'
p515
(lp516
Vservice
p517
asS'189'
p518
(lp519
sS'11'
p520
(lp521
Vservice
p522
asS'10'
p523
(lp524
sS'13'
p525
(lp526
Vfood
p527
aVprice
p528
asS'12'
p529
(lp530
Vprice
p531
asS'15'
p532
(lp533
sS'14'
p534
(lp535
sS'17'
p536
(lp537
Vatmosphere
p538
asS'16'
p539
(lp540
Vfood
p541
asS'19'
p542
(lp543
sS'18'
p544
(lp545
Vservice
p546
asS'62'
p547
(lp548
Vatmosphere
p549
aVprice
p550
asS'322'
p551
(lp552
sS'323'
p553
(lp554
Vfood
p555
asS'320'
p556
(lp557
Vservice
p558
asS'321'
p559
(lp560
Vmilitary_service
p561
aVservice
p562
asS'326'
p563
(lp564
Vservice
p565
asS'327'
p566
(lp567
sS'324'
p568
(lp569
Vservice
p570
asS'325'
p571
(lp572
sS'328'
p573
(lp574
Vservice
p575
asS'329'
p576
(lp577
Vservice
p578
asS'201'
p579
(lp580
Voverhaul
p581
aVservice
p582
asS'200'
p583
(lp584
sS'203'
p585
(lp586
Vservice
p587
asS'202'
p588
(lp589
Vprice
p590
asS'205'
p591
(lp592
Vfood
p593
asS'204'
p594
(lp595
sS'207'
p596
(lp597
Vservice
p598
asS'206'
p599
(lp600
Vfood
p601
aVprice
p602
aVmonetary_value
p603
asS'209'
p604
(lp605
Vservice
p606
asS'208'
p607
(lp608
sS'77'
p609
(lp610
Vservice
p611
asS'76'
p612
(lp613
Vservice
p614
asS'75'
p615
(lp616
sS'74'
p617
(lp618
Vfood
p619
aVservice
p620
asS'73'
p621
(lp622
Vfood
p623
aVservice
p624
asS'72'
p625
(lp626
Vservice
p627
asS'71'
p628
(lp629
Vprice
p630
asS'70'
p631
(lp632
Vatmosphere
p633
asS'79'
p634
(lp635
Vmilitary_service
p636
asS'78'
p637
(lp638
sS'8'
p639
(lp640
sS'120'
p641
(lp642
sS'121'
p643
(lp644
sS'122'
p645
(lp646
Vfood
p647
asS'123'
p648
(lp649
sS'124'
p650
(lp651
sS'125'
p652
(lp653
Vfood
p654
aVservice
p655
asS'126'
p656
(lp657
Vfood
p658
aVprice
p659
aVservice
p660
asS'127'
p661
(lp662
Vprice
p663
aVatmosphere
p664
aVservice
p665
asS'128'
p666
(lp667
Vambiance
p668
asS'129'
p669
(lp670
sS'319'
p671
(lp672
Vserve
p673
aVservice
p674
asS'318'
p675
(lp676
Vservice
p677
asS'313'
p678
(lp679
Vatmosphere
p680
asS'312'
p681
(lp682
Vfood
p683
asS'311'
p684
(lp685
sS'310'
p686
(lp687
sS'317'
p688
(lp689
Vprice
p690
asS'316'
p691
(lp692
sS'315'
p693
(lp694
Vservice
p695
asS'314'
p696
(lp697
sS'3'
p698
(lp699
Vfood
p700
aVservice
p701
asS'368'
p702
(lp703
sS'369'
p704
(lp705
sS'366'
p706
(lp707
sS'367'
p708
(lp709
sS'364'
p710
(lp711
sS'365'
p712
(lp713
sS'362'
p714
(lp715
Vservice
p716
asS'363'
p717
(lp718
sS'360'
p719
(lp720
Vfood
p721
aVambiance
p722
aVservice
p723
asS'361'
p724
(lp725
sS'380'
p726
(lp727
sS'381'
p728
(lp729
sS'382'
p730
(lp731
Vfood
p732
asS'383'
p733
(lp734
sS'384'
p735
(lp736
Vatmosphere
p737
aVservice
p738
asS'385'
p739
(lp740
Vfood
p741
aVservice
p742
asS'386'
p743
(lp744
Vservice
p745
asS'387'
p746
(lp747
sS'388'
p748
(lp749
Vatmosphere
p750
asS'389'
p751
(lp752
sS'60'
p753
(lp754
sS'61'
p755
(lp756
Vservice
p757
asS'258'
p758
(lp759
Vmilitary_service
p760
asS'259'
p761
(lp762
sS'64'
p763
(lp764
Vprice
p765
asS'65'
p766
(lp767
Vservice
p768
asS'66'
p769
(lp770
Vprice
p771
asS'67'
p772
(lp773
Vfood
p774
aVprice
p775
aVservice
p776
asS'68'
p777
(lp778
Vservice
p779
asS'69'
p780
(lp781
Vprice
p782
asS'250'
p783
(lp784
Vfood
p785
asS'251'
p786
(lp787
Vfood
p788
aVprice
p789
aVambiance
p790
aVservice
p791
asS'256'
p792
(lp793
sS'257'
p794
(lp795
sS'254'
p796
(lp797
Vfood
p798
aVatmosphere
p799
aVambiance
p800
aVmilitary_service
p801
aVservice
p802
asS'255'
p803
(lp804
sS'168'
p805
(lp806
sS'169'
p807
(lp808
sS'164'
p809
(lp810
sS'165'
p811
(lp812
sS'166'
p813
(lp814
Vservice
p815
asS'167'
p816
(lp817
sS'160'
p818
(lp819
Vfood
p820
asS'161'
p821
(lp822
Vservice
p823
asS'162'
p824
(lp825
Vservice
p826
asS'163'
p827
(lp828
sS'9'
p829
(lp830
Vprice
p831
asS'357'
p832
(lp833
Vservice
p834
asS'356'
p835
(lp836
sS'355'
p837
(lp838
sS'354'
p839
(lp840
sS'353'
p841
(lp842
sS'352'
p843
(lp844
Vfood
p845
asS'351'
p846
(lp847
Vambiance
p848
aVservice
p849
asS'350'
p850
(lp851
Vservice
p852
asS'359'
p853
(lp854
sS'358'
p855
(lp856
Vfood
p857
aVservice
p858
asS'216'
p859
(lp860
sS'217'
p861
(lp862
Vfood
p863
aVservice
p864
asS'214'
p865
(lp866
sS'215'
p867
(lp868
Vservice
p869
asS'212'
p870
(lp871
Vambiance
p872
asS'213'
p873
(lp874
Vfood
p875
asS'210'
p876
(lp877
Vservice
p878
asS'211'
p879
(lp880
Vservice
p881
asS'218'
p882
(lp883
Vservice
p884
asS'219'
p885
(lp886
Vambiance
p887
aVoverhaul
p888
aVservice
p889
asS'289'
p890
(lp891
Vatmosphere
p892
asS'288'
p893
(lp894
Vmilitary_service
p895
asS'4'
p896
(lp897
Vfood
p898
aVservice
p899
asS'281'
p900
(lp901
Vmilitary_service
p902
aVservice
p903
asS'280'
p904
(lp905
sS'283'
p906
(lp907
Vservice
p908
asS'282'
p909
(lp910
Vservice
p911
asS'285'
p912
(lp913
Vservice
p914
asS'284'
p915
(lp916
Vservice
p917
asS'287'
p918
(lp919
sS'286'
p920
(lp921
sS'263'
p922
(lp923
Vmilitary_service
p924
aVservice
p925
asS'262'
p926
(lp927
sS'261'
p928
(lp929
sS'260'
p930
(lp931
Vfood
p932
aVatmosphere
p933
asS'267'
p934
(lp935
sS'266'
p936
(lp937
Vservice
p938
asS'265'
p939
(lp940
sS'264'
p941
(lp942
sS'269'
p943
(lp944
Vservice
p945
asS'268'
p946
(lp947
Vmilitary_service
p948
asS'59'
p949
(lp950
Vprice
p951
asS'58'
p952
(lp953
Vservice
p954
asS'55'
p955
(lp956
sS'54'
p957
(lp958
Vservice
p959
asS'57'
p960
(lp961
Vservice
p962
asS'56'
p963
(lp964
sS'51'
p965
(lp966
sS'50'
p967
(lp968
sS'53'
p969
(lp970
Vservice
p971
asS'52'
p972
(lp973
Vmilitary_service
p974
asS'63'
p975
(lp976
Vservice
p977
asS'115'
p978
(lp979
Vatmosphere
p980
aVambiance
p981
aVprice
p982
asS'252'
p983
(lp984
sS'117'
p985
(lp986
Vservice
p987
asS'116'
p988
(lp989
sS'111'
p990
(lp991
Vservice
p992
asS'110'
p993
(lp994
Vatmosphere
p995
asS'113'
p996
(lp997
Vfood
p998
asS'253'
p999
(lp1000
Vprice
p1001
aVmilitary_service
p1002
asS'119'
p1003
(lp1004
sS'118'
p1005
(lp1006
Vservice
p1007
asS'308'
p1008
(lp1009
sS'309'
p1010
(lp1011
sS'300'
p1012
(lp1013
Vambiance
p1014
aVmilitary_service
p1015
asS'301'
p1016
(lp1017
Vfood
p1018
asS'302'
p1019
(lp1020
Vmilitary_service
p1021
aVservice
p1022
asS'303'
p1023
(lp1024
sS'304'
p1025
(lp1026
sS'305'
p1027
(lp1028
Vambiance
p1029
asS'306'
p1030
(lp1031
Vatmosphere
p1032
aVservice
p1033
asS'307'
p1034
(lp1035
Vservice
p1036
asS'229'
p1037
(lp1038
sS'228'
p1039
(lp1040
sS'227'
p1041
(lp1042
sS'226'
p1043
(lp1044
sS'225'
p1045
(lp1046
sS'224'
p1047
(lp1048
Vfood
p1049
aVatmosphere
p1050
asS'223'
p1051
(lp1052
Vfood
p1053
aVserve
p1054
asS'222'
p1055
(lp1056
Vfood
p1057
asS'221'
p1058
(lp1059
Vfood
p1060
aVservice
p1061
asS'220'
p1062
(lp1063
sS'114'
p1064
(lp1065
Vservice
p1066
asS'391'
p1067
(lp1068
sS'390'
p1069
(lp1070
Vservice
p1071
asS'151'
p1072
(lp1073
sS'150'
p1074
(lp1075
Vservice
p1076
asS'153'
p1077
(lp1078
Vfood
p1079
asS'152'
p1080
(lp1081
Vprice
p1082
aVatmosphere
p1083
aVservice
p1084
aVservicing
p1085
asS'155'
p1086
(lp1087
sS'154'
p1088
(lp1089
sS'157'
p1090
(lp1091
Vserve
p1092
asS'156'
p1093
(lp1094
Vprice
p1095
asS'159'
p1096
(lp1097
Vatmosphere
p1098
asS'158'
p1099
(lp1100
sS'112'
p1101
(lp1102
sS'83'
p1103
(lp1104
Vservice
p1105
asS'48'
p1106
(lp1107
sS'49'
p1108
(lp1109
Vfood
p1110
asS'46'
p1111
(lp1112
Vatmosphere
p1113
aVambiance
p1114
asS'47'
p1115
(lp1116
Vserve
p1117
aVservice
p1118
asS'44'
p1119
(lp1120
sS'45'
p1121
(lp1122
sS'42'
p1123
(lp1124
Vatmosphere
p1125
aVmilitary_service
p1126
asS'43'
p1127
(lp1128
Vfood
p1129
aVprice
p1130
asS'40'
p1131
(lp1132
sS'41'
p1133
(lp1134
sS'5'
p1135
(lp1136
Vservice
p1137
as.