(dp0
S'344'
p1
(lp2
Vpolitics
p3
asS'0'
p4
(lp5
Vpolitics
p6
asS'346'
p7
(lp8
Vpolitics
p9
asS'347'
p10
(lp11
Vpolitics
p12
asS'340'
p13
(lp14
Vpolitics
p15
asS'341'
p16
(lp17
Vpolitics
p18
asS'342'
p19
(lp20
Vpolitics
p21
asS'343'
p22
(lp23
sS'348'
p24
(lp25
sS'349'
p26
(lp27
Vpolitics
p28
asS'298'
p29
(lp30
Vpolitics
p31
asS'299'
p32
(lp33
Vpolitics
p34
asS'296'
p35
(lp36
Vpolitics
p37
asS'297'
p38
(lp39
Vpolitics
p40
asS'294'
p41
(lp42
Vpolitics
p43
asS'295'
p44
(lp45
sS'292'
p46
(lp47
Vpolitics
p48
asS'293'
p49
(lp50
sS'290'
p51
(lp52
Vpolitics
p53
asS'291'
p54
(lp55
Vpolitics
p56
asS'199'
p57
(lp58
Vpolitics
p59
asS'198'
p60
(lp61
sS'195'
p62
(lp63
Vpolitics
p64
asS'194'
p65
(lp66
Vpolitics
p67
asS'197'
p68
(lp69
sS'196'
p70
(lp71
Vpolitics
p72
asS'191'
p73
(lp74
Vpolitics
p75
asS'190'
p76
(lp77
Vpolitics
p78
asS'193'
p79
(lp80
sS'192'
p81
(lp82
sS'270'
p83
(lp84
Vpolitics
p85
asS'271'
p86
(lp87
Vpolitics
p88
asS'272'
p89
(lp90
Vpolitics
p91
asS'273'
p92
(lp93
Vpolitics
p94
asS'274'
p95
(lp96
sS'275'
p97
(lp98
sS'276'
p99
(lp100
Vpolitics
p101
asS'277'
p102
(lp103
sS'278'
p104
(lp105
sS'279'
p106
(lp107
sS'108'
p108
(lp109
sS'109'
p110
(lp111
Vpolitics
p112
asS'102'
p113
(lp114
sS'103'
p115
(lp116
Vpolitics
p117
asS'100'
p118
(lp119
Vpolitics
p120
asS'101'
p121
(lp122
Vpolitics
p123
asS'106'
p124
(lp125
Vpolitics
p126
asS'107'
p127
(lp128
sS'104'
p129
(lp130
sS'105'
p131
(lp132
Vpolitics
p133
asS'39'
p134
(lp135
sS'38'
p136
(lp137
Vpolitics
p138
asS'33'
p139
(lp140
sS'32'
p141
(lp142
Vpolitics
p143
asS'31'
p144
(lp145
Vpolitics
p146
asS'30'
p147
(lp148
Vpolitics
p149
asS'37'
p150
(lp151
Vpolitics
p152
asS'36'
p153
(lp154
sS'35'
p155
(lp156
sS'34'
p157
(lp158
Vpolitics
p159
asS'339'
p160
(lp161
sS'338'
p162
(lp163
sS'335'
p164
(lp165
sS'334'
p166
(lp167
sS'337'
p168
(lp169
sS'336'
p170
(lp171
sS'331'
p172
(lp173
sS'330'
p174
(lp175
Vpolitics
p176
asS'333'
p177
(lp178
Vpolitics
p179
asS'332'
p180
(lp181
Vpolitics
p182
asS'345'
p183
(lp184
sS'6'
p185
(lp186
Vpolitics
p187
asS'99'
p188
(lp189
Vpolitics
p190
asS'98'
p191
(lp192
Vpolitics
p193
asS'91'
p194
(lp195
sS'90'
p196
(lp197
Vpolitics
p198
asS'93'
p199
(lp200
sS'92'
p201
(lp202
Vpolitics
p203
asS'95'
p204
(lp205
Vpolitics
p206
asS'94'
p207
(lp208
Vpolitics
p209
asS'97'
p210
(lp211
Vpolitics
p212
asS'96'
p213
(lp214
sS'238'
p215
(lp216
Vpolitics
p217
asS'239'
p218
(lp219
Vpolitics
p220
asS'234'
p221
(lp222
Vpolitics
p223
asS'235'
p224
(lp225
sS'236'
p226
(lp227
sS'237'
p228
(lp229
Vpolitics
p230
asS'230'
p231
(lp232
Vpolitics
p233
asS'231'
p234
(lp235
sS'232'
p236
(lp237
sS'233'
p238
(lp239
Vpolitics
p240
asS'1'
p241
(lp242
sS'146'
p243
(lp244
Vpolitics
p245
asS'147'
p246
(lp247
sS'144'
p248
(lp249
Vpolitics
p250
asS'145'
p251
(lp252
sS'142'
p253
(lp254
sS'143'
p255
(lp256
Vpolitics
p257
asS'140'
p258
(lp259
sS'141'
p260
(lp261
sS'148'
p262
(lp263
sS'149'
p264
(lp265
Vpolitics
p266
asS'133'
p267
(lp268
sS'132'
p269
(lp270
Vpolitics
p271
asS'131'
p272
(lp273
Vpolitics
p274
asS'130'
p275
(lp276
sS'137'
p277
(lp278
Vpolitics
p279
asS'136'
p280
(lp281
Vpolitics
p282
asS'135'
p283
(lp284
sS'134'
p285
(lp286
Vpolitics
p287
asS'139'
p288
(lp289
sS'138'
p290
(lp291
Vpolitics
p292
asS'24'
p293
(lp294
sS'25'
p295
(lp296
Vpolitics
p297
asS'26'
p298
(lp299
Vpolitics
p300
asS'27'
p301
(lp302
Vpolitics
p303
asS'20'
p304
(lp305
sS'21'
p306
(lp307
Vpolitics
p308
asS'22'
p309
(lp310
Vpolitics
p311
asS'23'
p312
(lp313
sS'28'
p314
(lp315
Vpolitics
p316
asS'29'
p317
(lp318
Vpolitics
p319
asS'379'
p320
(lp321
Vpolitics
p322
asS'378'
p323
(lp324
Vpolitics
p325
asS'371'
p326
(lp327
Vpolitics
p328
asS'370'
p329
(lp330
Vpolitics
p331
asS'373'
p332
(lp333
sS'372'
p334
(lp335
sS'375'
p336
(lp337
sS'374'
p338
(lp339
Vpolitics
p340
asS'377'
p341
(lp342
Vpolitics
p343
asS'376'
p344
(lp345
Vpolitics
p346
asS'393'
p347
(lp348
sS'392'
p349
(lp350
Vpolitics
p351
asS'88'
p352
(lp353
Vpolitics
p354
asS'89'
p355
(lp356
Vpolitics
p357
asS'82'
p358
(lp359
sS'181'
p360
(lp361
Vpolitics
p362
asS'80'
p363
(lp364
sS'81'
p365
(lp366
Vpolitics
p367
asS'86'
p368
(lp369
Vpolitics
p370
asS'87'
p371
(lp372
Vpolitics
p373
asS'84'
p374
(lp375
Vpolitics
p376
asS'85'
p377
(lp378
sS'7'
p379
(lp380
Vpolitics
p381
asS'245'
p382
(lp383
Vpolitics
p384
asS'244'
p385
(lp386
sS'247'
p387
(lp388
Vpolitics
p389
asS'246'
p390
(lp391
sS'241'
p392
(lp393
Vpolitics
p394
asS'240'
p395
(lp396
sS'243'
p397
(lp398
Vpolitics
p399
asS'242'
p400
(lp401
Vpolitics
p402
asS'249'
p403
(lp404
Vpolitics
p405
asS'248'
p406
(lp407
Vpolitics
p408
asS'179'
p409
(lp410
sS'178'
p411
(lp412
Vpolitics
p413
asS'177'
p414
(lp415
Vpolitics
p416
asS'176'
p417
(lp418
sS'175'
p419
(lp420
Vpolitics
p421
asS'174'
p422
(lp423
Vpolitics
p424
asS'173'
p425
(lp426
Vpolitics
p427
asS'172'
p428
(lp429
sS'171'
p430
(lp431
sS'170'
p432
(lp433
Vpolitics
p434
asS'182'
p435
(lp436
sS'183'
p437
(lp438
Vpolitics
p439
asS'180'
p440
(lp441
sS'2'
p442
(lp443
Vpolitics
p444
asS'186'
p445
(lp446
sS'187'
p447
(lp448
sS'184'
p449
(lp450
Vpolitics
p451
asS'185'
p452
(lp453
sS'188'
p454
(lp455
Vpolitics
p456
asS'189'
p457
(lp458
sS'11'
p459
(lp460
Vpolitics
p461
asS'10'
p462
(lp463
sS'13'
p464
(lp465
Vpolitics
p466
asS'12'
p467
(lp468
Vpolitics
p469
asS'15'
p470
(lp471
sS'14'
p472
(lp473
sS'17'
p474
(lp475
Vpolitics
p476
asS'16'
p477
(lp478
Vpolitics
p479
asS'19'
p480
(lp481
sS'18'
p482
(lp483
Vpolitics
p484
asS'62'
p485
(lp486
Vpolitics
p487
asS'322'
p488
(lp489
sS'323'
p490
(lp491
Vpolitics
p492
asS'320'
p493
(lp494
Vpolitics
p495
asS'321'
p496
(lp497
Vpolitics
p498
asS'326'
p499
(lp500
Vpolitics
p501
asS'327'
p502
(lp503
sS'324'
p504
(lp505
Vpolitics
p506
asS'325'
p507
(lp508
sS'328'
p509
(lp510
Vpolitics
p511
asS'329'
p512
(lp513
Vpolitics
p514
asS'201'
p515
(lp516
Vpolitics
p517
asS'200'
p518
(lp519
sS'203'
p520
(lp521
Vpolitics
p522
asS'202'
p523
(lp524
Vpolitics
p525
asS'205'
p526
(lp527
Vpolitics
p528
asS'204'
p529
(lp530
sS'207'
p531
(lp532
Vpolitics
p533
asS'206'
p534
(lp535
Vpolitics
p536
asS'209'
p537
(lp538
Vpolitics
p539
asS'208'
p540
(lp541
sS'77'
p542
(lp543
Vpolitics
p544
asS'76'
p545
(lp546
Vpolitics
p547
asS'75'
p548
(lp549
sS'74'
p550
(lp551
Vpolitics
p552
asS'73'
p553
(lp554
Vpolitics
p555
asS'72'
p556
(lp557
Vpolitics
p558
asS'71'
p559
(lp560
Vpolitics
p561
asS'70'
p562
(lp563
Vpolitics
p564
asS'79'
p565
(lp566
Vpolitics
p567
asS'78'
p568
(lp569
sS'8'
p570
(lp571
sS'120'
p572
(lp573
sS'121'
p574
(lp575
sS'122'
p576
(lp577
Vpolitics
p578
asS'123'
p579
(lp580
sS'124'
p581
(lp582
sS'125'
p583
(lp584
Vpolitics
p585
asS'126'
p586
(lp587
Vpolitics
p588
asS'127'
p589
(lp590
Vpolitics
p591
asS'128'
p592
(lp593
Vpolitics
p594
asS'129'
p595
(lp596
sS'319'
p597
(lp598
Vpolitics
p599
asS'318'
p600
(lp601
Vpolitics
p602
asS'313'
p603
(lp604
Vpolitics
p605
asS'312'
p606
(lp607
Vpolitics
p608
asS'311'
p609
(lp610
sS'310'
p611
(lp612
sS'317'
p613
(lp614
Vpolitics
p615
asS'316'
p616
(lp617
sS'315'
p618
(lp619
Vpolitics
p620
asS'314'
p621
(lp622
sS'3'
p623
(lp624
Vpolitics
p625
asS'368'
p626
(lp627
sS'369'
p628
(lp629
sS'366'
p630
(lp631
sS'367'
p632
(lp633
sS'364'
p634
(lp635
sS'365'
p636
(lp637
sS'362'
p638
(lp639
Vpolitics
p640
asS'363'
p641
(lp642
sS'360'
p643
(lp644
Vpolitics
p645
asS'361'
p646
(lp647
sS'380'
p648
(lp649
sS'381'
p650
(lp651
sS'382'
p652
(lp653
Vpolitics
p654
asS'383'
p655
(lp656
sS'384'
p657
(lp658
Vpolitics
p659
asS'385'
p660
(lp661
Vpolitics
p662
asS'386'
p663
(lp664
Vpolitics
p665
asS'387'
p666
(lp667
sS'388'
p668
(lp669
Vpolitics
p670
asS'389'
p671
(lp672
sS'60'
p673
(lp674
sS'61'
p675
(lp676
Vpolitics
p677
asS'258'
p678
(lp679
Vpolitics
p680
asS'259'
p681
(lp682
sS'64'
p683
(lp684
Vpolitics
p685
asS'65'
p686
(lp687
Vpolitics
p688
asS'66'
p689
(lp690
Vpolitics
p691
asS'67'
p692
(lp693
Vpolitics
p694
asS'68'
p695
(lp696
Vpolitics
p697
asS'69'
p698
(lp699
Vpolitics
p700
asS'250'
p701
(lp702
Vpolitics
p703
asS'251'
p704
(lp705
Vpolitics
p706
asS'256'
p707
(lp708
sS'257'
p709
(lp710
sS'254'
p711
(lp712
Vpolitics
p713
asS'255'
p714
(lp715
sS'168'
p716
(lp717
sS'169'
p718
(lp719
sS'164'
p720
(lp721
sS'165'
p722
(lp723
sS'166'
p724
(lp725
Vpolitics
p726
asS'167'
p727
(lp728
sS'160'
p729
(lp730
Vpolitics
p731
asS'161'
p732
(lp733
Vpolitics
p734
asS'162'
p735
(lp736
Vpolitics
p737
asS'163'
p738
(lp739
sS'9'
p740
(lp741
Vpolitics
p742
asS'357'
p743
(lp744
Vpolitics
p745
asS'356'
p746
(lp747
sS'355'
p748
(lp749
sS'354'
p750
(lp751
sS'353'
p752
(lp753
sS'352'
p754
(lp755
Vpolitics
p756
asS'351'
p757
(lp758
Vpolitics
p759
asS'350'
p760
(lp761
Vpolitics
p762
asS'359'
p763
(lp764
sS'358'
p765
(lp766
Vpolitics
p767
asS'216'
p768
(lp769
sS'217'
p770
(lp771
Vpolitics
p772
asS'214'
p773
(lp774
sS'215'
p775
(lp776
Vpolitics
p777
asS'212'
p778
(lp779
Vpolitics
p780
asS'213'
p781
(lp782
Vpolitics
p783
asS'210'
p784
(lp785
Vpolitics
p786
asS'211'
p787
(lp788
Vpolitics
p789
asS'218'
p790
(lp791
Vpolitics
p792
asS'219'
p793
(lp794
Vpolitics
p795
asS'289'
p796
(lp797
Vpolitics
p798
asS'288'
p799
(lp800
Vpolitics
p801
asS'4'
p802
(lp803
Vpolitics
p804
asS'281'
p805
(lp806
Vpolitics
p807
asS'280'
p808
(lp809
sS'283'
p810
(lp811
Vpolitics
p812
asS'282'
p813
(lp814
Vpolitics
p815
asS'285'
p816
(lp817
Vpolitics
p818
asS'284'
p819
(lp820
Vpolitics
p821
asS'287'
p822
(lp823
sS'286'
p824
(lp825
sS'263'
p826
(lp827
Vpolitics
p828
asS'262'
p829
(lp830
sS'261'
p831
(lp832
sS'260'
p833
(lp834
Vpolitics
p835
asS'267'
p836
(lp837
sS'266'
p838
(lp839
Vpolitics
p840
asS'265'
p841
(lp842
sS'264'
p843
(lp844
sS'269'
p845
(lp846
Vpolitics
p847
asS'268'
p848
(lp849
Vpolitics
p850
asS'59'
p851
(lp852
Vpolitics
p853
asS'58'
p854
(lp855
Vpolitics
p856
asS'55'
p857
(lp858
sS'54'
p859
(lp860
Vpolitics
p861
asS'57'
p862
(lp863
Vpolitics
p864
asS'56'
p865
(lp866
sS'51'
p867
(lp868
sS'50'
p869
(lp870
sS'53'
p871
(lp872
Vpolitics
p873
asS'52'
p874
(lp875
Vpolitics
p876
asS'63'
p877
(lp878
Vpolitics
p879
asS'115'
p880
(lp881
Vpolitics
p882
asS'252'
p883
(lp884
sS'117'
p885
(lp886
Vpolitics
p887
asS'116'
p888
(lp889
sS'111'
p890
(lp891
Vpolitics
p892
asS'110'
p893
(lp894
Vpolitics
p895
asS'113'
p896
(lp897
Vpolitics
p898
asS'253'
p899
(lp900
Vpolitics
p901
asS'119'
p902
(lp903
sS'118'
p904
(lp905
Vpolitics
p906
asS'308'
p907
(lp908
sS'309'
p909
(lp910
sS'300'
p911
(lp912
Vpolitics
p913
asS'301'
p914
(lp915
Vpolitics
p916
asS'302'
p917
(lp918
Vpolitics
p919
asS'303'
p920
(lp921
sS'304'
p922
(lp923
sS'305'
p924
(lp925
Vpolitics
p926
asS'306'
p927
(lp928
Vpolitics
p929
asS'307'
p930
(lp931
Vpolitics
p932
asS'229'
p933
(lp934
sS'228'
p935
(lp936
sS'227'
p937
(lp938
sS'226'
p939
(lp940
sS'225'
p941
(lp942
sS'224'
p943
(lp944
Vpolitics
p945
asS'223'
p946
(lp947
Vpolitics
p948
asS'222'
p949
(lp950
Vpolitics
p951
asS'221'
p952
(lp953
Vpolitics
p954
asS'220'
p955
(lp956
sS'114'
p957
(lp958
Vpolitics
p959
asS'391'
p960
(lp961
sS'390'
p962
(lp963
Vpolitics
p964
asS'151'
p965
(lp966
sS'150'
p967
(lp968
Vpolitics
p969
asS'153'
p970
(lp971
Vpolitics
p972
asS'152'
p973
(lp974
Vpolitics
p975
asS'155'
p976
(lp977
sS'154'
p978
(lp979
sS'157'
p980
(lp981
Vpolitics
p982
asS'156'
p983
(lp984
Vpolitics
p985
asS'159'
p986
(lp987
Vpolitics
p988
asS'158'
p989
(lp990
sS'112'
p991
(lp992
sS'83'
p993
(lp994
Vpolitics
p995
asS'48'
p996
(lp997
sS'49'
p998
(lp999
Vpolitics
p1000
asS'46'
p1001
(lp1002
Vpolitics
p1003
asS'47'
p1004
(lp1005
Vpolitics
p1006
asS'44'
p1007
(lp1008
sS'45'
p1009
(lp1010
sS'42'
p1011
(lp1012
Vpolitics
p1013
asS'43'
p1014
(lp1015
Vpolitics
p1016
asS'40'
p1017
(lp1018
sS'41'
p1019
(lp1020
sS'5'
p1021
(lp1022
Vpolitics
p1023
as.