(dp0
S'344'
p1
(dp2
Vamp
p3
(lp4
Vfood
p5
asVability
p6
(lp7
g5
asVoccasion
p8
(lp9
g5
aVservice
p10
assS'0'
p11
(dp12
Vchieftain
p13
(lp14
Vservice
p15
asVleader
p16
(lp17
g15
assS'346'
p18
(dp19
VBirthday
p20
(lp21
Vfood
p22
assS'347'
p23
(dp24
Vcome
p25
(lp26
Vfood
p27
aVatmosphere
p28
asVdreams
p29
(lp30
g28
assS'340'
p31
(dp32
Vpast
p33
(lp34
Vatmosphere
p35
asVmoves
p36
(lp37
g35
aVserve
p38
asVtitles
p39
(lp40
Vfood
p41
ag35
ag38
asVsystem
p42
(lp43
g41
ag35
ag38
asVchampion
p44
(lp45
g41
ag35
ag38
aVservice
p46
assS'341'
p47
(dp48
Vawards
p49
(lp50
Vprice
p51
assS'342'
p52
(dp53
Vamp
p54
(lp55
Vfood
p56
aVservice
p57
asVicons
p58
(lp59
g57
assS'343'
p60
(dp61
sS'348'
p62
(dp63
sS'349'
p64
(dp65
Vactions
p66
(lp67
Vservice
p68
assS'298'
p69
(dp70
Vhealth
p71
(lp72
Vatmosphere
p73
assS'299'
p74
(dp75
VLife
p76
(lp77
Vfood
p78
assS'296'
p79
(dp80
Vsatellite
p81
(lp82
Vservice
p83
asVsearch
p84
(lp85
g83
asVrelay
p86
(lp87
g83
asVlaunch
p88
(lp89
g83
assS'297'
p90
(dp91
VBirthday
p92
(lp93
Vfood
p94
assS'294'
p95
(dp96
VRecord
p97
(lp98
Vservice
p99
assS'295'
p100
(dp101
sS'292'
p102
(dp103
Vlight
p104
(lp105
Vfood
p106
aVatmosphere
p107
aVservice
p108
asVMusic
p109
(lp110
g106
ag108
asVlanguage
p111
(lp112
g106
assS'293'
p113
(dp114
sS'290'
p115
(dp116
Vrevolution
p117
(lp118
Vservice
p119
assS'291'
p120
(dp121
Vstarred
p122
(lp123
Vprice
p124
aVmilitary_service
p125
asVwho
p126
(lp127
g125
assS'199'
p128
(dp129
Vvoid
p130
(lp131
Vatmosphere
p132
assS'198'
p133
(dp134
sS'195'
p135
(dp136
VIndia
p137
(lp138
Vambiance
p139
aVserve
p140
asVJuly
p141
(lp142
Vfood
p143
ag139
ag140
asVMarch
p144
(lp145
g140
assS'194'
p146
(dp147
Vteachings
p148
(lp149
Vservice
p150
asVpeace
p151
(lp152
Vatmosphere
p153
ag150
asVthreat
p154
(lp155
g150
assS'197'
p156
(dp157
sS'196'
p158
(dp159
Voldest
p160
(lp161
Vfood
p162
aVservice
p163
asVMinister
p164
(lp165
g163
asVhe
p166
(lp167
g162
ag163
assS'191'
p168
(dp169
VJourney
p170
(lp171
Vserve
p172
assS'190'
p173
(dp174
VTributes
p175
(lp176
Vprice
p177
aVservice
p178
asVwealth
p179
(lp180
g177
aVatmosphere
p181
ag178
asVgift
p182
(lp183
g177
assS'193'
p184
(dp185
sS'192'
p186
(dp187
sS'270'
p188
(dp189
Vplantation
p190
(lp191
Vfood
p192
aVambiance
p193
aVserve
p194
asVbirthday
p195
(lp196
g192
asVdrive
p197
(lp198
g192
ag194
assS'271'
p199
(dp200
Vsuccess
p201
(lp202
Vservice
p203
asVendeavours
p204
(lp205
g203
assS'272'
p206
(dp207
Vmake
p208
(lp209
Vfood
p210
assS'273'
p211
(dp212
Vwriters
p213
(lp214
Vprice
p215
aVservice
p216
asVAward
p217
(lp218
g215
assS'274'
p219
(dp220
sS'275'
p221
(dp222
sS'276'
p223
(dp224
Vlove
p225
(lp226
Vservicing
p227
assS'277'
p228
(dp229
sS'278'
p230
(dp231
sS'279'
p232
(dp233
sS'108'
p234
(dp235
sS'109'
p236
(dp237
Vacumen
p238
(lp239
Vfood
p240
aVmilitary_service
p241
asVIndustry
p242
(lp243
g241
assS'102'
p244
(dp245
sS'103'
p246
(dp247
VFighter
p248
(lp249
Vambiance
p250
aVservice
p251
asVtheme
p252
(lp253
Vfood
p254
ag250
ag251
asVIndia
p255
(lp256
g250
asVScience
p257
(lp258
g254
ag250
ag251
assS'100'
p259
(dp260
Vrunner
p261
(lp262
Vservice
p263
assS'101'
p264
(dp265
Vamp
p266
(lp267
Vfood
p268
assS'106'
p269
(dp270
Vamp
p271
(lp272
Vfood
p273
aVatmosphere
p274
asVage
p275
(lp276
g274
asVbrand
p277
(lp278
g273
ag274
assS'107'
p279
(dp280
sS'104'
p281
(dp282
sS'105'
p283
(dp284
VAwards
p285
(lp286
Vprice
p287
asVAward
p288
(lp289
g287
asVteams
p290
(lp291
g287
aVmilitary_service
p292
assS'39'
p293
(dp294
sS'38'
p295
(dp296
Vlook
p297
(lp298
Vatmosphere
p299
asVare
p300
(lp301
g299
aVprice
p302
assS'33'
p303
(dp304
sS'32'
p305
(dp306
VDevi
p307
(lp308
Vfood
p309
asVprodigy
p310
(lp311
g309
assS'31'
p312
(dp313
Vsinger
p314
(lp315
Vprice
p316
assS'30'
p317
(dp318
VLabour
p319
(lp320
Vservice
p321
asVsustainer
p322
(lp323
g321
assS'37'
p324
(dp325
Vvirtue
p326
(lp327
Vprice
p328
assS'36'
p329
(dp330
sS'35'
p331
(dp332
sS'34'
p333
(dp334
Vhome
p335
(lp336
Vmilitary_service
p337
aVservice
p338
asVwork
p339
(lp340
g338
assS'339'
p341
(dp342
sS'338'
p343
(dp344
sS'335'
p345
(dp346
sS'334'
p347
(dp348
sS'337'
p349
(dp350
sS'336'
p351
(dp352
sS'331'
p353
(dp354
sS'330'
p355
(dp356
Vattack
p357
(lp358
Vservice
p359
asVfamilies
p360
(lp361
Vmilitary_service
p362
ag359
assS'333'
p363
(dp364
Vhome
p365
(lp366
Vmilitary_service
p367
assS'332'
p368
(dp369
Vkingship
p370
(lp371
Vatmosphere
p372
assS'345'
p373
(dp374
sS'6'
p375
(dp376
Vspot
p377
(lp378
Vservice
p379
assS'99'
p380
(dp381
Vwinner
p382
(lp383
Vservice
p384
assS'98'
p385
(dp386
VMedal
p387
(lp388
Vfood
p389
aVprice
p390
aVservice
p391
asVgoal
p392
(lp393
g389
ag391
asVdevotion
p394
(lp395
g391
asVN
p396
(lp397
g389
ag391
assS'91'
p398
(dp399
sS'90'
p400
(dp401
VPlayer
p402
(lp403
Vprice
p404
assS'93'
p405
(dp406
sS'92'
p407
(dp408
Vwho
p409
(lp410
Vmilitary_service
p411
aVservice
p412
asVactor
p413
(lp414
g412
asVworks
p415
(lp416
g411
ag412
assS'95'
p417
(dp418
Vmake
p419
(lp420
Vfood
p421
assS'94'
p422
(dp423
VTest
p424
(lp425
Vservice
p426
asV200
p427
(lp428
Vfood
p429
ag426
asVwriter
p430
(lp431
g426
asVpopular
p432
(lp433
g429
ag426
assS'97'
p434
(dp435
VChallenges
p436
(lp437
Vservice
p438
asVpart
p439
(lp440
g438
assS'96'
p441
(dp442
sS'238'
p443
(dp444
Vbirthday
p445
(lp446
Vfood
p447
assS'239'
p448
(dp449
VPlanet
p450
(lp451
Vservice
p452
asVBirthday
p453
(lp454
Vfood
p455
ag452
asVFuture
p456
(lp457
g452
asVNews
p458
(lp459
g455
aVprice
p460
ag452
asVworld
p461
(lp462
g455
ag452
assS'234'
p463
(dp464
Vsafety
p465
(lp466
Vatmosphere
p467
assS'235'
p468
(dp469
sS'236'
p470
(dp471
sS'237'
p472
(dp473
Vworker
p474
(lp475
Vservice
p476
asVfounder
p477
(lp478
g476
assS'230'
p479
(dp480
Vamp
p481
(lp482
Vfood
p483
asVmatters
p484
(lp485
g483
assS'231'
p486
(dp487
sS'232'
p488
(dp489
sS'233'
p490
(dp491
Vworld
p492
(lp493
Vfood
p494
aVservice
p495
asVsafe
p496
(lp497
g494
ag495
asVknow
p498
(lp499
g494
aVserve
p500
ag495
asVerror
p501
(lp502
g494
assS'1'
p503
(dp504
sS'146'
p505
(dp506
Vlife
p507
(lp508
Vfood
p509
assS'147'
p510
(dp511
sS'144'
p512
(dp513
Vcommunities
p514
(lp515
Vambiance
p516
asVvalues
p517
(lp518
g516
aVmonetary_value
p519
asVforests
p520
(lp521
g516
ag519
assS'145'
p522
(dp523
sS'142'
p524
(dp525
sS'143'
p526
(dp527
Vmovements
p528
(lp529
Vservice
p530
assS'140'
p531
(dp532
sS'141'
p533
(dp534
sS'148'
p535
(dp536
sS'149'
p537
(dp538
Vlives
p539
(lp540
Vfood
p541
assS'133'
p542
(dp543
sS'132'
p544
(dp545
Vtime
p546
(lp547
Vatmosphere
p548
assS'131'
p549
(dp550
Vday
p551
(lp552
Vservice
p553
assS'130'
p554
(dp555
sS'137'
p556
(dp557
Vamp
p558
(lp559
Vfood
p560
assS'136'
p561
(dp562
Vinspiration
p563
(lp564
Vfood
p565
assS'135'
p566
(dp567
sS'134'
p568
(dp569
Vrelies
p570
(lp571
Vprice
p572
aVmilitary_service
p573
aVservice
p574
asVbowler
p575
(lp576
g574
asVwho
p577
(lp578
g573
ag574
assS'139'
p579
(dp580
sS'138'
p581
(dp582
VSir
p583
(lp584
Vservice
p585
assS'24'
p586
(dp587
sS'25'
p588
(dp589
VMarshal
p590
(lp591
Vmilitary_service
p592
aVservice
p593
asVrank
p594
(lp595
g592
asVofficers
p596
(lp597
g592
ag593
assS'26'
p598
(dp599
Vcontribution
p600
(lp601
Vservice
p602
asVartist
p603
(lp604
g602
assS'27'
p605
(dp606
Vplayer
p607
(lp608
Vprice
p609
asVlaurels
p610
(lp611
g609
aVatmosphere
p612
assS'20'
p613
(dp614
sS'21'
p615
(dp616
Vcome
p617
(lp618
Vfood
p619
assS'22'
p620
(dp621
VI
p622
(lp623
Vfood
p624
asVway
p625
(lp626
g624
aVatmosphere
p627
aVserve
p628
asVget
p629
(lp630
g624
ag628
assS'23'
p631
(dp632
sS'28'
p633
(dp634
VRevolution
p635
(lp636
Vservice
p637
asVright
p638
(lp639
Vambiance
p640
ag637
assS'29'
p641
(dp642
VFreedom
p643
(lp644
Vatmosphere
p645
asVright
p646
(lp647
g645
aVambiance
p648
assS'379'
p649
(dp650
Vimportance
p651
(lp652
Vfood
p653
aVmonetary_value
p654
aVservice
p655
asVfuels
p656
(lp657
g653
ag655
asVfuture
p658
(lp659
g655
assS'378'
p660
(dp661
Vplanet
p662
(lp663
Vservice
p664
asVcreature
p665
(lp666
g664
assS'371'
p667
(dp668
Vtake
p669
(lp670
Vservice
p671
assS'370'
p672
(dp673
VRevolution
p674
(lp675
Vservice
p676
asVFather
p677
(lp678
g676
assS'373'
p679
(dp680
sS'372'
p681
(dp682
sS'375'
p683
(dp684
sS'374'
p685
(dp686
Vweek
p687
(lp688
Vfood
p689
aVservice
p690
asVBeer
p691
(lp692
g689
ag690
asVday
p693
(lp694
g690
asVtastes
p695
(lp696
g689
ag690
assS'377'
p697
(dp698
Vlions
p699
(lp700
Vservice
p701
assS'376'
p702
(dp703
Vimpetus
p704
(lp705
Vservice
p706
asVdrive
p707
(lp708
Vserve
p709
ag706
assS'393'
p710
(dp711
sS'392'
p712
(dp713
Vsoul
p714
(lp715
Vservice
p716
asVfamily
p717
(lp718
Vmilitary_service
p719
ag716
assS'88'
p720
(dp721
VIndia
p722
(lp723
Vatmosphere
p724
aVambiance
p725
asVharmony
p726
(lp727
g724
assS'89'
p728
(dp729
Vpersonality
p730
(lp731
Vatmosphere
p732
assS'82'
p733
(dp734
sS'181'
p735
(dp736
Voccasion
p737
(lp738
Vservice
p739
asVbirth
p740
(lp741
g739
assS'80'
p742
(dp743
sS'81'
p744
(dp745
Vpurchases
p746
(lp747
Vprice
p748
assS'86'
p749
(dp750
Vplayer
p751
(lp752
Vprice
p753
asVfigure
p754
(lp755
g753
aVserve
p756
assS'87'
p757
(dp758
Vpassion
p759
(lp760
Vfood
p761
aVprice
p762
aVservice
p763
asVstepped
p764
(lp765
g761
ag762
ag763
asVcall
p766
(lp767
g763
asVhe
p768
(lp769
g761
ag763
assS'84'
p770
(dp771
g622
(lp772
Vfood
p773
asVm
p774
(lp775
g773
aVatmosphere
p776
assS'85'
p777
(dp778
sS'7'
p779
(dp780
VBlind
p781
(lp782
Vservice
p783
asVnot
p784
(lp785
Vfood
p786
ag783
assS'245'
p787
(dp788
VBharat
p789
(lp790
Vambiance
p791
assS'244'
p792
(dp793
sS'247'
p794
(dp795
Vimportance
p796
(lp797
Vmonetary_value
p798
asVnation
p799
(lp800
g798
aVservice
p801
aVmilitary_service
p802
asVresearch
p803
(lp804
g798
ag801
assS'246'
p805
(dp806
sS'241'
p807
(dp808
Vgift
p809
(lp810
Vprice
p811
assS'240'
p812
(dp813
sS'243'
p814
(dp815
Vcharge
p816
(lp817
Vprice
p818
asVDengue
p819
(lp820
Vfood
p821
ag818
aVatmosphere
p822
asVt
p823
(lp824
g821
ag818
assS'242'
p825
(dp826
Vthing
p827
(lp828
Vfood
p829
aVmilitary_service
p830
asVFamily
p831
(lp832
g830
assS'249'
p833
(dp834
Vprosperity
p835
(lp836
Vatmosphere
p837
asVamp
p838
(lp839
Vfood
p840
ag837
assS'248'
p841
(dp842
VMuseums
p843
(lp844
Vservice
p845
asVmeans
p846
(lp847
g845
assS'179'
p848
(dp849
sS'178'
p850
(dp851
Vparts
p852
(lp853
Vambiance
p854
assS'177'
p855
(dp856
Vlot
p857
(lp858
Vambiance
p859
assS'176'
p860
(dp861
sS'175'
p862
(dp863
Vacted
p864
(lp865
Vfood
p866
aVprice
p867
asVHe
p868
(lp869
g866
assS'174'
p870
(dp871
Vhearts
p872
(lp873
Vfood
p874
assS'173'
p875
(dp876
Vbattle
p877
(lp878
Vservice
p879
assS'172'
p880
(dp881
sS'171'
p882
(dp883
sS'170'
p884
(dp885
Vcustomer
p886
(lp887
Vservice
p888
asVroaches
p889
(lp890
g888
assS'182'
p891
(dp892
sS'183'
p893
(dp894
Vsets
p895
(lp896
Vservice
p897
assS'180'
p898
(dp899
sS'2'
p900
(dp901
Vroles
p902
(lp903
Vservice
p904
assS'186'
p905
(dp906
sS'187'
p907
(dp908
sS'184'
p909
(dp910
Vremain
p911
(lp912
Vprice
p913
assS'185'
p914
(dp915
sS'188'
p916
(dp917
Vact
p918
(lp919
Vservice
p920
assS'189'
p921
(dp922
sS'11'
p923
(dp924
VIndians
p925
(lp926
Vservice
p927
assS'10'
p928
(dp929
sS'13'
p930
(dp931
Vloss
p932
(lp933
Vprice
p934
asVlife
p935
(lp936
Vfood
p937
ag934
assS'12'
p938
(dp939
Vnature
p940
(lp941
Vprice
p942
assS'15'
p943
(dp944
sS'14'
p945
(dp946
sS'17'
p947
(dp948
Vfailure
p949
(lp950
Vatmosphere
p951
assS'16'
p952
(dp953
Vlife
p954
(lp955
Vfood
p956
assS'19'
p957
(dp958
sS'18'
p959
(dp960
Vsuits
p961
(lp962
Vservice
p963
assS'62'
p964
(dp965
Vway
p966
(lp967
Vatmosphere
p968
asVsaxophonist
p969
(lp970
g968
aVprice
p971
assS'322'
p972
(dp973
sS'323'
p974
(dp975
Vbirthday
p976
(lp977
Vfood
p978
assS'320'
p979
(dp980
Vfriend
p981
(lp982
Vservice
p983
assS'321'
p984
(dp985
Vnovelist
p986
(lp987
Vmilitary_service
p988
aVservice
p989
asVwho
p990
(lp991
g988
assS'326'
p992
(dp993
Vfilmmaker
p994
(lp995
Vservice
p996
assS'327'
p997
(dp998
sS'324'
p999
(dp1000
Vday
p1001
(lp1002
Vservice
p1003
assS'325'
p1004
(dp1005
sS'328'
p1006
(dp1007
Vmovies
p1008
(lp1009
Vservice
p1010
assS'329'
p1011
(dp1012
Vday
p1013
(lp1014
Vservice
p1015
assS'201'
p1016
(dp1017
Vmartyrs
p1018
(lp1019
Voverhaul
p1020
aVservice
p1021
asVmassacre
p1022
(lp1023
g1020
assS'200'
p1024
(dp1025
sS'203'
p1026
(dp1027
Vwoman
p1028
(lp1029
Vservice
p1030
assS'202'
p1031
(dp1032
Vremain
p1033
(lp1034
Vprice
p1035
assS'205'
p1036
(dp1037
Vbirthday
p1038
(lp1039
Vfood
p1040
assS'204'
p1041
(dp1042
sS'207'
p1043
(dp1044
Vobservance
p1045
(lp1046
Vservice
p1047
asVDay
p1048
(lp1049
g1047
assS'206'
p1050
(dp1051
Vmoment
p1052
(lp1053
Vfood
p1054
aVprice
p1055
aVmonetary_value
p1056
asVawards
p1057
(lp1058
g1055
asVIt
p1059
(lp1060
g1054
ag1055
assS'209'
p1061
(dp1062
Vbridges
p1063
(lp1064
Vservice
p1065
asVBooks
p1066
(lp1067
g1065
asVmeans
p1068
(lp1069
g1065
assS'208'
p1070
(dp1071
sS'77'
p1072
(dp1073
Vcoaching
p1074
(lp1075
Vservice
p1076
assS'76'
p1077
(dp1078
Vbusinessman
p1079
(lp1080
Vservice
p1081
asVwork
p1082
(lp1083
g1081
assS'75'
p1084
(dp1085
sS'74'
p1086
(dp1087
Vimagination
p1088
(lp1089
Vfood
p1090
aVservice
p1091
asVhand
p1092
(lp1093
g1091
assS'73'
p1094
(dp1095
Vname
p1096
(lp1097
Vfood
p1098
aVservice
p1099
asVHe
p1100
(lp1101
g1098
assS'72'
p1102
(dp1103
Vcommentator
p1104
(lp1105
Vservice
p1106
assS'71'
p1107
(dp1108
Vmusician
p1109
(lp1110
Vprice
p1111
assS'70'
p1112
(dp1113
Vfear
p1114
(lp1115
Vatmosphere
p1116
assS'79'
p1117
(dp1118
VIndustry
p1119
(lp1120
Vmilitary_service
p1121
assS'78'
p1122
(dp1123
sS'8'
p1124
(dp1125
sS'120'
p1126
(dp1127
sS'121'
p1128
(dp1129
sS'122'
p1130
(dp1131
Vworlds
p1132
(lp1133
Vfood
p1134
assS'123'
p1135
(dp1136
sS'124'
p1137
(dp1138
sS'125'
p1139
(dp1140
Vamp
p1141
(lp1142
Vfood
p1143
asVpapers
p1144
(lp1145
g1143
aVservice
p1146
assS'126'
p1147
(dp1148
Vplayer
p1149
(lp1150
Vprice
p1151
aVservice
p1152
asVawesome
p1153
(lp1154
Vfood
p1155
ag1151
ag1152
asVrole
p1156
(lp1157
g1152
asVreigning
p1158
(lp1159
g1151
ag1152
assS'127'
p1160
(dp1161
Vperformer
p1162
(lp1163
Vprice
p1164
asVmeters
p1165
(lp1166
g1164
aVservice
p1167
asVevents
p1168
(lp1169
g1164
aVatmosphere
p1170
ag1167
assS'128'
p1171
(dp1172
Vboundaries
p1173
(lp1174
Vambiance
p1175
assS'129'
p1176
(dp1177
sS'319'
p1178
(dp1179
VReturns
p1180
(lp1181
Vserve
p1182
asVwishes
p1183
(lp1184
g1182
aVservice
p1185
assS'318'
p1186
(dp1187
Vcricket
p1188
(lp1189
Vservice
p1190
assS'313'
p1191
(dp1192
Vpersonality
p1193
(lp1194
Vatmosphere
p1195
assS'312'
p1196
(dp1197
Vexperiences
p1198
(lp1199
Vfood
p1200
assS'311'
p1201
(dp1202
sS'310'
p1203
(dp1204
sS'317'
p1205
(dp1206
Vlegend
p1207
(lp1208
Vprice
p1209
assS'316'
p1210
(dp1211
sS'315'
p1212
(dp1213
Vwishes
p1214
(lp1215
Vservice
p1216
assS'314'
p1217
(dp1218
sS'3'
p1219
(dp1220
Vrace
p1221
(lp1222
Vservice
p1223
asVbuffalo
p1224
(lp1225
Vfood
p1226
ag1223
assS'368'
p1227
(dp1228
sS'369'
p1229
(dp1230
sS'366'
p1231
(dp1232
sS'367'
p1233
(dp1234
sS'364'
p1235
(dp1236
sS'365'
p1237
(dp1238
sS'362'
p1239
(dp1240
Vtreatment
p1241
(lp1242
Vservice
p1243
assS'363'
p1244
(dp1245
sS'360'
p1246
(dp1247
Vtributes
p1248
(lp1249
Vservice
p1250
asVus
p1251
(lp1252
Vambiance
p1253
ag1250
asVinspiration
p1254
(lp1255
Vfood
p1256
ag1253
ag1250
assS'361'
p1257
(dp1258
sS'380'
p1259
(dp1260
sS'381'
p1261
(dp1262
sS'382'
p1263
(dp1264
Vanniversary
p1265
(lp1266
Vfood
p1267
assS'383'
p1268
(dp1269
sS'384'
p1270
(dp1271
Vyouth
p1272
(lp1273
Vatmosphere
p1274
aVservice
p1275
asVPresident
p1276
(lp1277
g1274
ag1275
asVWriter
p1278
(lp1279
g1274
ag1275
asVChairman
p1280
(lp1281
g1275
assS'385'
p1282
(dp1283
Vservices
p1284
(lp1285
Vfood
p1286
aVservice
p1287
asVworkers
p1288
(lp1289
g1286
ag1287
asVlives
p1290
(lp1291
g1286
assS'386'
p1292
(dp1293
Vmosquitos
p1294
(lp1295
Vservice
p1296
assS'387'
p1297
(dp1298
sS'388'
p1299
(dp1300
Vways
p1301
(lp1302
Vatmosphere
p1303
assS'389'
p1304
(dp1305
sS'60'
p1306
(dp1307
sS'61'
p1308
(dp1309
Vgame
p1310
(lp1311
Vservice
p1312
asVNobody
p1313
(lp1314
g1312
assS'258'
p1315
(dp1316
Vfamily
p1317
(lp1318
Vmilitary_service
p1319
assS'259'
p1320
(dp1321
sS'64'
p1322
(dp1323
Vmusician
p1324
(lp1325
Vprice
p1326
assS'65'
p1327
(dp1328
VMinister
p1329
(lp1330
Vservice
p1331
assS'66'
p1332
(dp1333
Vtold
p1334
(lp1335
Vprice
p1336
assS'67'
p1337
(dp1338
g622
(lp1339
Vfood
p1340
asVreceived
p1341
(lp1342
g1340
aVprice
p1343
asVeducation
p1344
(lp1345
g1340
ag1343
aVservice
p1346
assS'68'
p1347
(dp1348
Vscientist
p1349
(lp1350
Vservice
p1351
assS'69'
p1352
(dp1353
Vsinger
p1354
(lp1355
Vprice
p1356
assS'250'
p1357
(dp1358
VLife
p1359
(lp1360
Vfood
p1361
asVfragile
p1362
(lp1363
g1361
assS'251'
p1364
(dp1365
Vmost
p1366
(lp1367
Vfood
p1368
aVprice
p1369
aVambiance
p1370
aVservice
p1371
asVCharm
p1372
(lp1373
g1368
ag1370
asVlot
p1374
(lp1375
g1370
asVCondolences
p1376
(lp1377
g1368
ag1369
ag1370
asVconnected
p1378
(lp1379
g1368
ag1369
ag1370
ag1371
asVcelebration
p1380
(lp1381
g1368
ag1369
ag1370
ag1371
assS'256'
p1382
(dp1383
sS'257'
p1384
(dp1385
sS'254'
p1386
(dp1387
Voperations
p1388
(lp1389
Vatmosphere
p1390
aVambiance
p1391
aVmilitary_service
p1392
aVservice
p1393
asVpersonnel
p1394
(lp1395
g1390
ag1391
ag1392
asVState
p1396
(lp1397
g1390
ag1391
asVDestination
p1398
(lp1399
Vfood
p1400
ag1390
ag1391
ag1392
ag1393
asVKarnataka
p1401
(lp1402
g1391
assS'255'
p1403
(dp1404
sS'168'
p1405
(dp1406
sS'169'
p1407
(dp1408
sS'164'
p1409
(dp1410
sS'165'
p1411
(dp1412
sS'166'
p1413
(dp1414
Vactor
p1415
(lp1416
Vservice
p1417
assS'167'
p1418
(dp1419
sS'160'
p1420
(dp1421
VLit
p1422
(lp1423
Vfood
p1424
assS'161'
p1425
(dp1426
Vtalents
p1427
(lp1428
Vservice
p1429
asVwriters
p1430
(lp1431
g1429
assS'162'
p1432
(dp1433
Vgame
p1434
(lp1435
Vservice
p1436
assS'163'
p1437
(dp1438
sS'9'
p1439
(dp1440
Vcontemplate
p1441
(lp1442
Vprice
p1443
assS'357'
p1444
(dp1445
Vsouls
p1446
(lp1447
Vservice
p1448
assS'356'
p1449
(dp1450
sS'355'
p1451
(dp1452
sS'354'
p1453
(dp1454
sS'353'
p1455
(dp1456
sS'352'
p1457
(dp1458
Vdates
p1459
(lp1460
Vfood
p1461
assS'351'
p1462
(dp1463
VPresident
p1464
(lp1465
Vservice
p1466
asVIndia
p1467
(lp1468
Vambiance
p1469
ag1466
assS'350'
p1470
(dp1471
VRevolution
p1472
(lp1473
Vservice
p1474
assS'359'
p1475
(dp1476
sS'358'
p1477
(dp1478
Vscientist
p1479
(lp1480
Vservice
p1481
asVdemise
p1482
(lp1483
Vfood
p1484
ag1481
assS'216'
p1485
(dp1486
sS'217'
p1487
(dp1488
Vexperiments
p1489
(lp1490
Vfood
p1491
aVservice
p1492
asVastronomy
p1493
(lp1494
g1491
assS'214'
p1495
(dp1496
sS'215'
p1497
(dp1498
Vrecovery
p1499
(lp1500
Vservice
p1501
assS'212'
p1502
(dp1503
VThere
p1504
(lp1505
Vambiance
p1506
assS'213'
p1507
(dp1508
Vcategory
p1509
(lp1510
Vfood
p1511
assS'210'
p1512
(dp1513
Vcakewalk
p1514
(lp1515
Vservice
p1516
assS'211'
p1517
(dp1518
VSafe
p1519
(lp1520
Vservice
p1521
assS'218'
p1522
(dp1523
VMay
p1524
(lp1525
Vservice
p1526
asVGaming
p1527
(lp1528
g1526
assS'219'
p1529
(dp1530
Vboost
p1531
(lp1532
Vambiance
p1533
aVoverhaul
p1534
aVservice
p1535
asVStartups
p1536
(lp1537
g1534
asVIndia
p1538
(lp1539
g1533
ag1534
assS'289'
p1540
(dp1541
Vwelcome
p1542
(lp1543
Vatmosphere
p1544
assS'288'
p1545
(dp1546
Vyear
p1547
(lp1548
Vmilitary_service
p1549
assS'4'
p1550
(dp1551
Vgirl
p1552
(lp1553
Vservice
p1554
asVwhole
p1555
(lp1556
Vfood
p1557
ag1554
assS'281'
p1558
(dp1559
Vtype
p1560
(lp1561
Vmilitary_service
p1562
aVservice
p1563
asVpeople
p1564
(lp1565
g1562
assS'280'
p1566
(dp1567
sS'283'
p1568
(dp1569
VDentist
p1570
(lp1571
Vservice
p1572
assS'282'
p1573
(dp1574
Vwish
p1575
(lp1576
Vservice
p1577
assS'285'
p1578
(dp1579
Vcandidates
p1580
(lp1581
Vservice
p1582
assS'284'
p1583
(dp1584
Vactor
p1585
(lp1586
Vservice
p1587
assS'287'
p1588
(dp1589
sS'286'
p1590
(dp1591
sS'263'
p1592
(dp1593
Vwho
p1594
(lp1595
Vmilitary_service
p1596
aVservice
p1597
asVvictims
p1598
(lp1599
g1597
assS'262'
p1600
(dp1601
sS'261'
p1602
(dp1603
sS'260'
p1604
(dp1605
VLIFE
p1606
(lp1607
Vfood
p1608
asVreason
p1609
(lp1610
g1608
aVatmosphere
p1611
assS'267'
p1612
(dp1613
sS'266'
p1614
(dp1615
Vwin
p1616
(lp1617
Vservice
p1618
asVstraight
p1619
(lp1620
g1618
assS'265'
p1621
(dp1622
sS'264'
p1623
(dp1624
sS'269'
p1625
(dp1626
Vresponsibility
p1627
(lp1628
Vservice
p1629
assS'268'
p1630
(dp1631
Vhome
p1632
(lp1633
Vmilitary_service
p1634
assS'59'
p1635
(dp1636
Vplayer
p1637
(lp1638
Vprice
p1639
assS'58'
p1640
(dp1641
Vbridge
p1642
(lp1643
Vservice
p1644
assS'55'
p1645
(dp1646
sS'54'
p1647
(dp1648
Vsuccess
p1649
(lp1650
Vservice
p1651
assS'57'
p1652
(dp1653
Vsolver
p1654
(lp1655
Vservice
p1656
assS'56'
p1657
(dp1658
sS'51'
p1659
(dp1660
sS'50'
p1661
(dp1662
sS'53'
p1663
(dp1664
Vduty
p1665
(lp1666
Vservice
p1667
assS'52'
p1668
(dp1669
Vsociety
p1670
(lp1671
Vmilitary_service
p1672
assS'63'
p1673
(dp1674
Vfilm
p1675
(lp1676
Vservice
p1677
assS'115'
p1678
(dp1679
VBritain
p1680
(lp1681
Vatmosphere
p1682
aVambiance
p1683
aVprice
p1684
asVaward
p1685
(lp1686
g1682
ag1684
asVwonder
p1687
(lp1688
g1682
assS'252'
p1689
(dp1690
sS'117'
p1691
(dp1692
VConservation
p1693
(lp1694
Vservice
p1695
asVcontributions
p1696
(lp1697
g1695
assS'116'
p1698
(dp1699
sS'111'
p1700
(dp1701
Vcinema
p1702
(lp1703
Vservice
p1704
assS'110'
p1705
(dp1706
Vopportunity
p1707
(lp1708
Vatmosphere
p1709
assS'113'
p1710
(dp1711
Vtea
p1712
(lp1713
Vfood
p1714
assS'253'
p1715
(dp1716
Vwho
p1717
(lp1718
Vmilitary_service
p1719
asVyoung
p1720
(lp1721
Vprice
p1722
ag1719
assS'119'
p1723
(dp1724
sS'118'
p1725
(dp1726
Vwoman
p1727
(lp1728
Vservice
p1729
asVleader
p1730
(lp1731
g1729
assS'308'
p1732
(dp1733
sS'309'
p1734
(dp1735
sS'300'
p1736
(dp1737
Vus
p1738
(lp1739
Vambiance
p1740
asVsocial
p1741
(lp1742
g1740
aVmilitary_service
p1743
assS'301'
p1744
(dp1745
Vincarnations
p1746
(lp1747
Vfood
p1748
assS'302'
p1749
(dp1750
Vmankind
p1751
(lp1752
Vmilitary_service
p1753
asVservice
p1754
(lp1755
g1753
aVservice
p1756
asVdoctors
p1757
(lp1758
g1753
ag1756
assS'303'
p1759
(dp1760
sS'304'
p1761
(dp1762
sS'305'
p1763
(dp1764
VCountry
p1765
(lp1766
Vambiance
p1767
asVIndia
p1768
(lp1769
g1767
assS'306'
p1770
(dp1771
Vjokes
p1772
(lp1773
Vservice
p1774
asVr
p1775
(lp1776
Vatmosphere
p1777
ag1774
assS'307'
p1778
(dp1779
Vactor
p1780
(lp1781
Vservice
p1782
assS'229'
p1783
(dp1784
sS'228'
p1785
(dp1786
sS'227'
p1787
(dp1788
sS'226'
p1789
(dp1790
sS'225'
p1791
(dp1792
sS'224'
p1793
(dp1794
Vu
p1795
(lp1796
Vfood
p1797
asVhappiness
p1798
(lp1799
g1797
aVatmosphere
p1800
assS'223'
p1801
(dp1802
Vreturns
p1803
(lp1804
Vfood
p1805
aVserve
p1806
asg1795
(lp1807
g1805
assS'222'
p1808
(dp1809
Vlives
p1810
(lp1811
Vfood
p1812
assS'221'
p1813
(dp1814
VA
p1815
(lp1816
Vfood
p1817
aVservice
p1818
asVman
p1819
(lp1820
g1818
assS'220'
p1821
(dp1822
sS'114'
p1823
(dp1824
Vby-product
p1825
(lp1826
Vservice
p1827
assS'391'
p1828
(dp1829
sS'390'
p1830
(dp1831
Vsports
p1832
(lp1833
Vservice
p1834
assS'151'
p1835
(dp1836
sS'150'
p1837
(dp1838
Vday
p1839
(lp1840
Vservice
p1841
asVmartyrdom
p1842
(lp1843
g1841
assS'153'
p1844
(dp1845
Vcome
p1846
(lp1847
Vfood
p1848
assS'152'
p1849
(dp1850
Vlove
p1851
(lp1852
Vprice
p1853
aVatmosphere
p1854
aVservice
p1855
aVservicing
p1856
asVcheer
p1857
(lp1858
g1853
asVsunshine
p1859
(lp1860
g1853
ag1854
ag1855
asVlaughter
p1861
(lp1862
g1853
ag1855
asVwarmth
p1863
(lp1864
g1853
ag1854
ag1855
assS'155'
p1865
(dp1866
sS'154'
p1867
(dp1868
sS'157'
p1869
(dp1870
VMarch
p1871
(lp1872
Vserve
p1873
assS'156'
p1874
(dp1875
Vawards
p1876
(lp1877
Vprice
p1878
assS'159'
p1879
(dp1880
Vage
p1881
(lp1882
Vatmosphere
p1883
assS'158'
p1884
(dp1885
sS'112'
p1886
(dp1887
sS'83'
p1888
(dp1889
Vfather
p1890
(lp1891
Vservice
p1892
assS'48'
p1893
(dp1894
sS'49'
p1895
(dp1896
Vthing
p1897
(lp1898
Vfood
p1899
asVVishnu
p1900
(lp1901
g1899
assS'46'
p1902
(dp1903
Vtheater
p1904
(lp1905
Vambiance
p1906
asVroots
p1907
(lp1908
Vatmosphere
p1909
ag1906
assS'47'
p1910
(dp1911
Vlimitations
p1912
(lp1913
Vserve
p1914
aVservice
p1915
asVtour
p1916
(lp1917
g1914
assS'44'
p1918
(dp1919
sS'45'
p1920
(dp1921
sS'42'
p1922
(dp1923
Vsociety
p1924
(lp1925
Vatmosphere
p1926
aVmilitary_service
p1927
asVhealth
p1928
(lp1929
g1926
assS'43'
p1930
(dp1931
g622
(lp1932
Vfood
p1933
asVworried
p1934
(lp1935
g1933
aVprice
p1936
assS'40'
p1937
(dp1938
sS'41'
p1939
(dp1940
sS'5'
p1941
(dp1942
Vcontribution
p1943
(lp1944
Vservice
p1945
asVmusic
p1946
(lp1947
g1945
asVSoul
p1948
(lp1949
g1945
ass.