(dp0
S'344'
p1
(dp2
Vamp
p3
(lp4
Vpolitics
p5
asVability
p6
(lp7
g5
asVoccasion
p8
(lp9
g5
assS'0'
p10
(dp11
Vchieftain
p12
(lp13
Vpolitics
p14
asVleader
p15
(lp16
g14
assS'346'
p17
(dp18
VBirthday
p19
(lp20
Vpolitics
p21
assS'347'
p22
(dp23
Vcome
p24
(lp25
Vpolitics
p26
asVdreams
p27
(lp28
g26
assS'340'
p29
(dp30
Vpast
p31
(lp32
Vpolitics
p33
asVmoves
p34
(lp35
g33
asVtitles
p36
(lp37
g33
asVsystem
p38
(lp39
g33
asVchampion
p40
(lp41
g33
assS'341'
p42
(dp43
Vawards
p44
(lp45
Vpolitics
p46
assS'342'
p47
(dp48
Vamp
p49
(lp50
Vpolitics
p51
asVicons
p52
(lp53
g51
assS'343'
p54
(dp55
sS'348'
p56
(dp57
sS'349'
p58
(dp59
Vactions
p60
(lp61
Vpolitics
p62
assS'298'
p63
(dp64
Vhealth
p65
(lp66
Vpolitics
p67
assS'299'
p68
(dp69
VLife
p70
(lp71
Vpolitics
p72
assS'296'
p73
(dp74
Vsatellite
p75
(lp76
Vpolitics
p77
asVsearch
p78
(lp79
g77
asVrelay
p80
(lp81
g77
asVlaunch
p82
(lp83
g77
assS'297'
p84
(dp85
VBirthday
p86
(lp87
Vpolitics
p88
assS'294'
p89
(dp90
VRecord
p91
(lp92
Vpolitics
p93
assS'295'
p94
(dp95
sS'292'
p96
(dp97
Vlight
p98
(lp99
Vpolitics
p100
asVMusic
p101
(lp102
g100
asVlanguage
p103
(lp104
g100
assS'293'
p105
(dp106
sS'290'
p107
(dp108
Vrevolution
p109
(lp110
Vpolitics
p111
assS'291'
p112
(dp113
Vstarred
p114
(lp115
Vpolitics
p116
asVwho
p117
(lp118
g116
assS'199'
p119
(dp120
Vvoid
p121
(lp122
Vpolitics
p123
assS'198'
p124
(dp125
sS'195'
p126
(dp127
VIndia
p128
(lp129
Vpolitics
p130
asVJuly
p131
(lp132
g130
asVMarch
p133
(lp134
g130
assS'194'
p135
(dp136
Vteachings
p137
(lp138
Vpolitics
p139
asVpeace
p140
(lp141
g139
asVthreat
p142
(lp143
g139
assS'197'
p144
(dp145
sS'196'
p146
(dp147
Voldest
p148
(lp149
Vpolitics
p150
asVMinister
p151
(lp152
g150
asVhe
p153
(lp154
g150
assS'191'
p155
(dp156
VJourney
p157
(lp158
Vpolitics
p159
assS'190'
p160
(dp161
VTributes
p162
(lp163
Vpolitics
p164
asVwealth
p165
(lp166
g164
asVgift
p167
(lp168
g164
assS'193'
p169
(dp170
sS'192'
p171
(dp172
sS'270'
p173
(dp174
Vplantation
p175
(lp176
Vpolitics
p177
asVbirthday
p178
(lp179
g177
asVdrive
p180
(lp181
g177
assS'271'
p182
(dp183
Vsuccess
p184
(lp185
Vpolitics
p186
asVendeavours
p187
(lp188
g186
assS'272'
p189
(dp190
Vmake
p191
(lp192
Vpolitics
p193
assS'273'
p194
(dp195
Vwriters
p196
(lp197
Vpolitics
p198
asVAward
p199
(lp200
g198
assS'274'
p201
(dp202
sS'275'
p203
(dp204
sS'276'
p205
(dp206
Vlove
p207
(lp208
Vpolitics
p209
assS'277'
p210
(dp211
sS'278'
p212
(dp213
sS'279'
p214
(dp215
sS'108'
p216
(dp217
sS'109'
p218
(dp219
Vacumen
p220
(lp221
Vpolitics
p222
asVIndustry
p223
(lp224
g222
assS'102'
p225
(dp226
sS'103'
p227
(dp228
VFighter
p229
(lp230
Vpolitics
p231
asVtheme
p232
(lp233
g231
asVIndia
p234
(lp235
g231
asVScience
p236
(lp237
g231
assS'100'
p238
(dp239
Vrunner
p240
(lp241
Vpolitics
p242
assS'101'
p243
(dp244
Vamp
p245
(lp246
Vpolitics
p247
assS'106'
p248
(dp249
Vamp
p250
(lp251
Vpolitics
p252
asVage
p253
(lp254
g252
asVbrand
p255
(lp256
g252
assS'107'
p257
(dp258
sS'104'
p259
(dp260
sS'105'
p261
(dp262
VAwards
p263
(lp264
Vpolitics
p265
asVAward
p266
(lp267
g265
asVteams
p268
(lp269
g265
assS'39'
p270
(dp271
sS'38'
p272
(dp273
Vlook
p274
(lp275
Vpolitics
p276
asVare
p277
(lp278
g276
assS'33'
p279
(dp280
sS'32'
p281
(dp282
VDevi
p283
(lp284
Vpolitics
p285
asVprodigy
p286
(lp287
g285
assS'31'
p288
(dp289
Vsinger
p290
(lp291
Vpolitics
p292
assS'30'
p293
(dp294
VLabour
p295
(lp296
Vpolitics
p297
asVsustainer
p298
(lp299
g297
assS'37'
p300
(dp301
Vvirtue
p302
(lp303
Vpolitics
p304
assS'36'
p305
(dp306
sS'35'
p307
(dp308
sS'34'
p309
(dp310
Vhome
p311
(lp312
Vpolitics
p313
asVwork
p314
(lp315
g313
assS'339'
p316
(dp317
sS'338'
p318
(dp319
sS'335'
p320
(dp321
sS'334'
p322
(dp323
sS'337'
p324
(dp325
sS'336'
p326
(dp327
sS'331'
p328
(dp329
sS'330'
p330
(dp331
Vattack
p332
(lp333
Vpolitics
p334
asVfamilies
p335
(lp336
g334
assS'333'
p337
(dp338
Vhome
p339
(lp340
Vpolitics
p341
assS'332'
p342
(dp343
Vkingship
p344
(lp345
Vpolitics
p346
assS'345'
p347
(dp348
sS'6'
p349
(dp350
Vspot
p351
(lp352
Vpolitics
p353
assS'99'
p354
(dp355
Vwinner
p356
(lp357
Vpolitics
p358
assS'98'
p359
(dp360
VMedal
p361
(lp362
Vpolitics
p363
asVgoal
p364
(lp365
g363
asVdevotion
p366
(lp367
g363
asVN
p368
(lp369
g363
assS'91'
p370
(dp371
sS'90'
p372
(dp373
VPlayer
p374
(lp375
Vpolitics
p376
assS'93'
p377
(dp378
sS'92'
p379
(dp380
Vwho
p381
(lp382
Vpolitics
p383
asVactor
p384
(lp385
g383
asVworks
p386
(lp387
g383
assS'95'
p388
(dp389
Vmake
p390
(lp391
Vpolitics
p392
assS'94'
p393
(dp394
VTest
p395
(lp396
Vpolitics
p397
asV200
p398
(lp399
g397
asVwriter
p400
(lp401
g397
asVpopular
p402
(lp403
g397
assS'97'
p404
(dp405
VChallenges
p406
(lp407
Vpolitics
p408
asVpart
p409
(lp410
g408
assS'96'
p411
(dp412
sS'238'
p413
(dp414
Vbirthday
p415
(lp416
Vpolitics
p417
assS'239'
p418
(dp419
VPlanet
p420
(lp421
Vpolitics
p422
asVBirthday
p423
(lp424
g422
asVFuture
p425
(lp426
g422
asVNews
p427
(lp428
g422
asVworld
p429
(lp430
g422
assS'234'
p431
(dp432
Vsafety
p433
(lp434
Vpolitics
p435
assS'235'
p436
(dp437
sS'236'
p438
(dp439
sS'237'
p440
(dp441
Vworker
p442
(lp443
Vpolitics
p444
asVfounder
p445
(lp446
g444
assS'230'
p447
(dp448
Vamp
p449
(lp450
Vpolitics
p451
asVmatters
p452
(lp453
g451
assS'231'
p454
(dp455
sS'232'
p456
(dp457
sS'233'
p458
(dp459
Vworld
p460
(lp461
Vpolitics
p462
asVsafe
p463
(lp464
g462
asVknow
p465
(lp466
g462
asVerror
p467
(lp468
g462
assS'1'
p469
(dp470
sS'146'
p471
(dp472
Vlife
p473
(lp474
Vpolitics
p475
assS'147'
p476
(dp477
sS'144'
p478
(dp479
Vcommunities
p480
(lp481
Vpolitics
p482
asVvalues
p483
(lp484
g482
asVforests
p485
(lp486
g482
assS'145'
p487
(dp488
sS'142'
p489
(dp490
sS'143'
p491
(dp492
Vmovements
p493
(lp494
Vpolitics
p495
assS'140'
p496
(dp497
sS'141'
p498
(dp499
sS'148'
p500
(dp501
sS'149'
p502
(dp503
Vlives
p504
(lp505
Vpolitics
p506
assS'133'
p507
(dp508
sS'132'
p509
(dp510
Vtime
p511
(lp512
Vpolitics
p513
assS'131'
p514
(dp515
Vday
p516
(lp517
Vpolitics
p518
assS'130'
p519
(dp520
sS'137'
p521
(dp522
Vamp
p523
(lp524
Vpolitics
p525
assS'136'
p526
(dp527
Vinspiration
p528
(lp529
Vpolitics
p530
assS'135'
p531
(dp532
sS'134'
p533
(dp534
Vrelies
p535
(lp536
Vpolitics
p537
asVbowler
p538
(lp539
g537
asVwho
p540
(lp541
g537
assS'139'
p542
(dp543
sS'138'
p544
(dp545
VSir
p546
(lp547
Vpolitics
p548
assS'24'
p549
(dp550
sS'25'
p551
(dp552
VMarshal
p553
(lp554
Vpolitics
p555
asVrank
p556
(lp557
g555
asVofficers
p558
(lp559
g555
assS'26'
p560
(dp561
Vcontribution
p562
(lp563
Vpolitics
p564
asVartist
p565
(lp566
g564
assS'27'
p567
(dp568
Vplayer
p569
(lp570
Vpolitics
p571
asVlaurels
p572
(lp573
g571
assS'20'
p574
(dp575
sS'21'
p576
(dp577
Vcome
p578
(lp579
Vpolitics
p580
assS'22'
p581
(dp582
VI
p583
(lp584
Vpolitics
p585
asVway
p586
(lp587
g585
asVget
p588
(lp589
g585
assS'23'
p590
(dp591
sS'28'
p592
(dp593
VRevolution
p594
(lp595
Vpolitics
p596
asVright
p597
(lp598
g596
assS'29'
p599
(dp600
VFreedom
p601
(lp602
Vpolitics
p603
asVright
p604
(lp605
g603
assS'379'
p606
(dp607
Vimportance
p608
(lp609
Vpolitics
p610
asVfuels
p611
(lp612
g610
asVfuture
p613
(lp614
g610
assS'378'
p615
(dp616
Vplanet
p617
(lp618
Vpolitics
p619
asVcreature
p620
(lp621
g619
assS'371'
p622
(dp623
Vtake
p624
(lp625
Vpolitics
p626
assS'370'
p627
(dp628
VRevolution
p629
(lp630
Vpolitics
p631
asVFather
p632
(lp633
g631
assS'373'
p634
(dp635
sS'372'
p636
(dp637
sS'375'
p638
(dp639
sS'374'
p640
(dp641
Vweek
p642
(lp643
Vpolitics
p644
asVBeer
p645
(lp646
g644
asVday
p647
(lp648
g644
asVtastes
p649
(lp650
g644
assS'377'
p651
(dp652
Vlions
p653
(lp654
Vpolitics
p655
assS'376'
p656
(dp657
Vimpetus
p658
(lp659
Vpolitics
p660
asVdrive
p661
(lp662
g660
assS'393'
p663
(dp664
sS'392'
p665
(dp666
Vsoul
p667
(lp668
Vpolitics
p669
asVfamily
p670
(lp671
g669
assS'88'
p672
(dp673
VIndia
p674
(lp675
Vpolitics
p676
asVharmony
p677
(lp678
g676
assS'89'
p679
(dp680
Vpersonality
p681
(lp682
Vpolitics
p683
assS'82'
p684
(dp685
sS'181'
p686
(dp687
Voccasion
p688
(lp689
Vpolitics
p690
asVbirth
p691
(lp692
g690
assS'80'
p693
(dp694
sS'81'
p695
(dp696
Vpurchases
p697
(lp698
Vpolitics
p699
assS'86'
p700
(dp701
Vplayer
p702
(lp703
Vpolitics
p704
asVfigure
p705
(lp706
g704
assS'87'
p707
(dp708
Vpassion
p709
(lp710
Vpolitics
p711
asVstepped
p712
(lp713
g711
asVcall
p714
(lp715
g711
asVhe
p716
(lp717
g711
assS'84'
p718
(dp719
g583
(lp720
Vpolitics
p721
asVm
p722
(lp723
g721
assS'85'
p724
(dp725
sS'7'
p726
(dp727
VBlind
p728
(lp729
Vpolitics
p730
asVnot
p731
(lp732
g730
assS'245'
p733
(dp734
VBharat
p735
(lp736
Vpolitics
p737
assS'244'
p738
(dp739
sS'247'
p740
(dp741
Vimportance
p742
(lp743
Vpolitics
p744
asVnation
p745
(lp746
g744
asVresearch
p747
(lp748
g744
assS'246'
p749
(dp750
sS'241'
p751
(dp752
Vgift
p753
(lp754
Vpolitics
p755
assS'240'
p756
(dp757
sS'243'
p758
(dp759
Vcharge
p760
(lp761
Vpolitics
p762
asVDengue
p763
(lp764
g762
asVt
p765
(lp766
g762
assS'242'
p767
(dp768
Vthing
p769
(lp770
Vpolitics
p771
asVFamily
p772
(lp773
g771
assS'249'
p774
(dp775
Vprosperity
p776
(lp777
Vpolitics
p778
asVamp
p779
(lp780
g778
assS'248'
p781
(dp782
VMuseums
p783
(lp784
Vpolitics
p785
asVmeans
p786
(lp787
g785
assS'179'
p788
(dp789
sS'178'
p790
(dp791
Vparts
p792
(lp793
Vpolitics
p794
assS'177'
p795
(dp796
Vlot
p797
(lp798
Vpolitics
p799
assS'176'
p800
(dp801
sS'175'
p802
(dp803
Vacted
p804
(lp805
Vpolitics
p806
asVHe
p807
(lp808
g806
assS'174'
p809
(dp810
Vhearts
p811
(lp812
Vpolitics
p813
assS'173'
p814
(dp815
Vbattle
p816
(lp817
Vpolitics
p818
assS'172'
p819
(dp820
sS'171'
p821
(dp822
sS'170'
p823
(dp824
Vcustomer
p825
(lp826
Vpolitics
p827
asVroaches
p828
(lp829
g827
assS'182'
p830
(dp831
sS'183'
p832
(dp833
Vsets
p834
(lp835
Vpolitics
p836
assS'180'
p837
(dp838
sS'2'
p839
(dp840
Vroles
p841
(lp842
Vpolitics
p843
assS'186'
p844
(dp845
sS'187'
p846
(dp847
sS'184'
p848
(dp849
Vremain
p850
(lp851
Vpolitics
p852
assS'185'
p853
(dp854
sS'188'
p855
(dp856
Vact
p857
(lp858
Vpolitics
p859
assS'189'
p860
(dp861
sS'11'
p862
(dp863
VIndians
p864
(lp865
Vpolitics
p866
assS'10'
p867
(dp868
sS'13'
p869
(dp870
Vloss
p871
(lp872
Vpolitics
p873
asVlife
p874
(lp875
g873
assS'12'
p876
(dp877
Vnature
p878
(lp879
Vpolitics
p880
assS'15'
p881
(dp882
sS'14'
p883
(dp884
sS'17'
p885
(dp886
Vfailure
p887
(lp888
Vpolitics
p889
assS'16'
p890
(dp891
Vlife
p892
(lp893
Vpolitics
p894
assS'19'
p895
(dp896
sS'18'
p897
(dp898
Vsuits
p899
(lp900
Vpolitics
p901
assS'62'
p902
(dp903
Vway
p904
(lp905
Vpolitics
p906
asVsaxophonist
p907
(lp908
g906
assS'322'
p909
(dp910
sS'323'
p911
(dp912
Vbirthday
p913
(lp914
Vpolitics
p915
assS'320'
p916
(dp917
Vfriend
p918
(lp919
Vpolitics
p920
assS'321'
p921
(dp922
Vnovelist
p923
(lp924
Vpolitics
p925
asVwho
p926
(lp927
g925
assS'326'
p928
(dp929
Vfilmmaker
p930
(lp931
Vpolitics
p932
assS'327'
p933
(dp934
sS'324'
p935
(dp936
Vday
p937
(lp938
Vpolitics
p939
assS'325'
p940
(dp941
sS'328'
p942
(dp943
Vmovies
p944
(lp945
Vpolitics
p946
assS'329'
p947
(dp948
Vday
p949
(lp950
Vpolitics
p951
assS'201'
p952
(dp953
Vmartyrs
p954
(lp955
Vpolitics
p956
asVmassacre
p957
(lp958
g956
assS'200'
p959
(dp960
sS'203'
p961
(dp962
Vwoman
p963
(lp964
Vpolitics
p965
assS'202'
p966
(dp967
Vremain
p968
(lp969
Vpolitics
p970
assS'205'
p971
(dp972
Vbirthday
p973
(lp974
Vpolitics
p975
assS'204'
p976
(dp977
sS'207'
p978
(dp979
Vobservance
p980
(lp981
Vpolitics
p982
asVDay
p983
(lp984
g982
assS'206'
p985
(dp986
Vmoment
p987
(lp988
Vpolitics
p989
asVawards
p990
(lp991
g989
asVIt
p992
(lp993
g989
assS'209'
p994
(dp995
Vbridges
p996
(lp997
Vpolitics
p998
asVBooks
p999
(lp1000
g998
asVmeans
p1001
(lp1002
g998
assS'208'
p1003
(dp1004
sS'77'
p1005
(dp1006
Vcoaching
p1007
(lp1008
Vpolitics
p1009
assS'76'
p1010
(dp1011
Vbusinessman
p1012
(lp1013
Vpolitics
p1014
asVwork
p1015
(lp1016
g1014
assS'75'
p1017
(dp1018
sS'74'
p1019
(dp1020
Vimagination
p1021
(lp1022
Vpolitics
p1023
asVhand
p1024
(lp1025
g1023
assS'73'
p1026
(dp1027
Vname
p1028
(lp1029
Vpolitics
p1030
asVHe
p1031
(lp1032
g1030
assS'72'
p1033
(dp1034
Vcommentator
p1035
(lp1036
Vpolitics
p1037
assS'71'
p1038
(dp1039
Vmusician
p1040
(lp1041
Vpolitics
p1042
assS'70'
p1043
(dp1044
Vfear
p1045
(lp1046
Vpolitics
p1047
assS'79'
p1048
(dp1049
VIndustry
p1050
(lp1051
Vpolitics
p1052
assS'78'
p1053
(dp1054
sS'8'
p1055
(dp1056
sS'120'
p1057
(dp1058
sS'121'
p1059
(dp1060
sS'122'
p1061
(dp1062
Vworlds
p1063
(lp1064
Vpolitics
p1065
assS'123'
p1066
(dp1067
sS'124'
p1068
(dp1069
sS'125'
p1070
(dp1071
Vamp
p1072
(lp1073
Vpolitics
p1074
asVpapers
p1075
(lp1076
g1074
assS'126'
p1077
(dp1078
Vplayer
p1079
(lp1080
Vpolitics
p1081
asVawesome
p1082
(lp1083
g1081
asVrole
p1084
(lp1085
g1081
asVreigning
p1086
(lp1087
g1081
assS'127'
p1088
(dp1089
Vperformer
p1090
(lp1091
Vpolitics
p1092
asVmeters
p1093
(lp1094
g1092
asVevents
p1095
(lp1096
g1092
assS'128'
p1097
(dp1098
Vboundaries
p1099
(lp1100
Vpolitics
p1101
assS'129'
p1102
(dp1103
sS'319'
p1104
(dp1105
VReturns
p1106
(lp1107
Vpolitics
p1108
asVwishes
p1109
(lp1110
g1108
assS'318'
p1111
(dp1112
Vcricket
p1113
(lp1114
Vpolitics
p1115
assS'313'
p1116
(dp1117
Vpersonality
p1118
(lp1119
Vpolitics
p1120
assS'312'
p1121
(dp1122
Vexperiences
p1123
(lp1124
Vpolitics
p1125
assS'311'
p1126
(dp1127
sS'310'
p1128
(dp1129
sS'317'
p1130
(dp1131
Vlegend
p1132
(lp1133
Vpolitics
p1134
assS'316'
p1135
(dp1136
sS'315'
p1137
(dp1138
Vwishes
p1139
(lp1140
Vpolitics
p1141
assS'314'
p1142
(dp1143
sS'3'
p1144
(dp1145
Vrace
p1146
(lp1147
Vpolitics
p1148
asVbuffalo
p1149
(lp1150
g1148
assS'368'
p1151
(dp1152
sS'369'
p1153
(dp1154
sS'366'
p1155
(dp1156
sS'367'
p1157
(dp1158
sS'364'
p1159
(dp1160
sS'365'
p1161
(dp1162
sS'362'
p1163
(dp1164
Vtreatment
p1165
(lp1166
Vpolitics
p1167
assS'363'
p1168
(dp1169
sS'360'
p1170
(dp1171
Vtributes
p1172
(lp1173
Vpolitics
p1174
asVus
p1175
(lp1176
g1174
asVinspiration
p1177
(lp1178
g1174
assS'361'
p1179
(dp1180
sS'380'
p1181
(dp1182
sS'381'
p1183
(dp1184
sS'382'
p1185
(dp1186
Vanniversary
p1187
(lp1188
Vpolitics
p1189
assS'383'
p1190
(dp1191
sS'384'
p1192
(dp1193
Vyouth
p1194
(lp1195
Vpolitics
p1196
asVPresident
p1197
(lp1198
g1196
asVWriter
p1199
(lp1200
g1196
asVChairman
p1201
(lp1202
g1196
assS'385'
p1203
(dp1204
Vservices
p1205
(lp1206
Vpolitics
p1207
asVworkers
p1208
(lp1209
g1207
asVlives
p1210
(lp1211
g1207
assS'386'
p1212
(dp1213
Vmosquitos
p1214
(lp1215
Vpolitics
p1216
assS'387'
p1217
(dp1218
sS'388'
p1219
(dp1220
Vways
p1221
(lp1222
Vpolitics
p1223
assS'389'
p1224
(dp1225
sS'60'
p1226
(dp1227
sS'61'
p1228
(dp1229
Vgame
p1230
(lp1231
Vpolitics
p1232
asVNobody
p1233
(lp1234
g1232
assS'258'
p1235
(dp1236
Vfamily
p1237
(lp1238
Vpolitics
p1239
assS'259'
p1240
(dp1241
sS'64'
p1242
(dp1243
Vmusician
p1244
(lp1245
Vpolitics
p1246
assS'65'
p1247
(dp1248
VMinister
p1249
(lp1250
Vpolitics
p1251
assS'66'
p1252
(dp1253
Vtold
p1254
(lp1255
Vpolitics
p1256
assS'67'
p1257
(dp1258
g583
(lp1259
Vpolitics
p1260
asVreceived
p1261
(lp1262
g1260
asVeducation
p1263
(lp1264
g1260
assS'68'
p1265
(dp1266
Vscientist
p1267
(lp1268
Vpolitics
p1269
assS'69'
p1270
(dp1271
Vsinger
p1272
(lp1273
Vpolitics
p1274
assS'250'
p1275
(dp1276
VLife
p1277
(lp1278
Vpolitics
p1279
asVfragile
p1280
(lp1281
g1279
assS'251'
p1282
(dp1283
Vmost
p1284
(lp1285
Vpolitics
p1286
asVCharm
p1287
(lp1288
g1286
asVlot
p1289
(lp1290
g1286
asVCondolences
p1291
(lp1292
g1286
asVconnected
p1293
(lp1294
g1286
asVcelebration
p1295
(lp1296
g1286
assS'256'
p1297
(dp1298
sS'257'
p1299
(dp1300
sS'254'
p1301
(dp1302
Voperations
p1303
(lp1304
Vpolitics
p1305
asVpersonnel
p1306
(lp1307
g1305
asVState
p1308
(lp1309
g1305
asVDestination
p1310
(lp1311
g1305
asVKarnataka
p1312
(lp1313
g1305
assS'255'
p1314
(dp1315
sS'168'
p1316
(dp1317
sS'169'
p1318
(dp1319
sS'164'
p1320
(dp1321
sS'165'
p1322
(dp1323
sS'166'
p1324
(dp1325
Vactor
p1326
(lp1327
Vpolitics
p1328
assS'167'
p1329
(dp1330
sS'160'
p1331
(dp1332
VLit
p1333
(lp1334
Vpolitics
p1335
assS'161'
p1336
(dp1337
Vtalents
p1338
(lp1339
Vpolitics
p1340
asVwriters
p1341
(lp1342
g1340
assS'162'
p1343
(dp1344
Vgame
p1345
(lp1346
Vpolitics
p1347
assS'163'
p1348
(dp1349
sS'9'
p1350
(dp1351
Vcontemplate
p1352
(lp1353
Vpolitics
p1354
assS'357'
p1355
(dp1356
Vsouls
p1357
(lp1358
Vpolitics
p1359
assS'356'
p1360
(dp1361
sS'355'
p1362
(dp1363
sS'354'
p1364
(dp1365
sS'353'
p1366
(dp1367
sS'352'
p1368
(dp1369
Vdates
p1370
(lp1371
Vpolitics
p1372
assS'351'
p1373
(dp1374
VPresident
p1375
(lp1376
Vpolitics
p1377
asVIndia
p1378
(lp1379
g1377
assS'350'
p1380
(dp1381
VRevolution
p1382
(lp1383
Vpolitics
p1384
assS'359'
p1385
(dp1386
sS'358'
p1387
(dp1388
Vscientist
p1389
(lp1390
Vpolitics
p1391
asVdemise
p1392
(lp1393
g1391
assS'216'
p1394
(dp1395
sS'217'
p1396
(dp1397
Vexperiments
p1398
(lp1399
Vpolitics
p1400
asVastronomy
p1401
(lp1402
g1400
assS'214'
p1403
(dp1404
sS'215'
p1405
(dp1406
Vrecovery
p1407
(lp1408
Vpolitics
p1409
assS'212'
p1410
(dp1411
VThere
p1412
(lp1413
Vpolitics
p1414
assS'213'
p1415
(dp1416
Vcategory
p1417
(lp1418
Vpolitics
p1419
assS'210'
p1420
(dp1421
Vcakewalk
p1422
(lp1423
Vpolitics
p1424
assS'211'
p1425
(dp1426
VSafe
p1427
(lp1428
Vpolitics
p1429
assS'218'
p1430
(dp1431
VMay
p1432
(lp1433
Vpolitics
p1434
asVGaming
p1435
(lp1436
g1434
assS'219'
p1437
(dp1438
Vboost
p1439
(lp1440
Vpolitics
p1441
asVStartups
p1442
(lp1443
g1441
asVIndia
p1444
(lp1445
g1441
assS'289'
p1446
(dp1447
Vwelcome
p1448
(lp1449
Vpolitics
p1450
assS'288'
p1451
(dp1452
Vyear
p1453
(lp1454
Vpolitics
p1455
assS'4'
p1456
(dp1457
Vgirl
p1458
(lp1459
Vpolitics
p1460
asVwhole
p1461
(lp1462
g1460
assS'281'
p1463
(dp1464
Vtype
p1465
(lp1466
Vpolitics
p1467
asVpeople
p1468
(lp1469
g1467
assS'280'
p1470
(dp1471
sS'283'
p1472
(dp1473
VDentist
p1474
(lp1475
Vpolitics
p1476
assS'282'
p1477
(dp1478
Vwish
p1479
(lp1480
Vpolitics
p1481
assS'285'
p1482
(dp1483
Vcandidates
p1484
(lp1485
Vpolitics
p1486
assS'284'
p1487
(dp1488
Vactor
p1489
(lp1490
Vpolitics
p1491
assS'287'
p1492
(dp1493
sS'286'
p1494
(dp1495
sS'263'
p1496
(dp1497
Vwho
p1498
(lp1499
Vpolitics
p1500
asVvictims
p1501
(lp1502
g1500
assS'262'
p1503
(dp1504
sS'261'
p1505
(dp1506
sS'260'
p1507
(dp1508
VLIFE
p1509
(lp1510
Vpolitics
p1511
asVreason
p1512
(lp1513
g1511
assS'267'
p1514
(dp1515
sS'266'
p1516
(dp1517
Vwin
p1518
(lp1519
Vpolitics
p1520
asVstraight
p1521
(lp1522
g1520
assS'265'
p1523
(dp1524
sS'264'
p1525
(dp1526
sS'269'
p1527
(dp1528
Vresponsibility
p1529
(lp1530
Vpolitics
p1531
assS'268'
p1532
(dp1533
Vhome
p1534
(lp1535
Vpolitics
p1536
assS'59'
p1537
(dp1538
Vplayer
p1539
(lp1540
Vpolitics
p1541
assS'58'
p1542
(dp1543
Vbridge
p1544
(lp1545
Vpolitics
p1546
assS'55'
p1547
(dp1548
sS'54'
p1549
(dp1550
Vsuccess
p1551
(lp1552
Vpolitics
p1553
assS'57'
p1554
(dp1555
Vsolver
p1556
(lp1557
Vpolitics
p1558
assS'56'
p1559
(dp1560
sS'51'
p1561
(dp1562
sS'50'
p1563
(dp1564
sS'53'
p1565
(dp1566
Vduty
p1567
(lp1568
Vpolitics
p1569
assS'52'
p1570
(dp1571
Vsociety
p1572
(lp1573
Vpolitics
p1574
assS'63'
p1575
(dp1576
Vfilm
p1577
(lp1578
Vpolitics
p1579
assS'115'
p1580
(dp1581
VBritain
p1582
(lp1583
Vpolitics
p1584
asVaward
p1585
(lp1586
g1584
asVwonder
p1587
(lp1588
g1584
assS'252'
p1589
(dp1590
sS'117'
p1591
(dp1592
VConservation
p1593
(lp1594
Vpolitics
p1595
asVcontributions
p1596
(lp1597
g1595
assS'116'
p1598
(dp1599
sS'111'
p1600
(dp1601
Vcinema
p1602
(lp1603
Vpolitics
p1604
assS'110'
p1605
(dp1606
Vopportunity
p1607
(lp1608
Vpolitics
p1609
assS'113'
p1610
(dp1611
Vtea
p1612
(lp1613
Vpolitics
p1614
assS'253'
p1615
(dp1616
Vwho
p1617
(lp1618
Vpolitics
p1619
asVyoung
p1620
(lp1621
g1619
assS'119'
p1622
(dp1623
sS'118'
p1624
(dp1625
Vwoman
p1626
(lp1627
Vpolitics
p1628
asVleader
p1629
(lp1630
g1628
assS'308'
p1631
(dp1632
sS'309'
p1633
(dp1634
sS'300'
p1635
(dp1636
Vus
p1637
(lp1638
Vpolitics
p1639
asVsocial
p1640
(lp1641
g1639
assS'301'
p1642
(dp1643
Vincarnations
p1644
(lp1645
Vpolitics
p1646
assS'302'
p1647
(dp1648
Vmankind
p1649
(lp1650
Vpolitics
p1651
asVservice
p1652
(lp1653
g1651
asVdoctors
p1654
(lp1655
g1651
assS'303'
p1656
(dp1657
sS'304'
p1658
(dp1659
sS'305'
p1660
(dp1661
VCountry
p1662
(lp1663
Vpolitics
p1664
asVIndia
p1665
(lp1666
g1664
assS'306'
p1667
(dp1668
Vjokes
p1669
(lp1670
Vpolitics
p1671
asVr
p1672
(lp1673
g1671
assS'307'
p1674
(dp1675
Vactor
p1676
(lp1677
Vpolitics
p1678
assS'229'
p1679
(dp1680
sS'228'
p1681
(dp1682
sS'227'
p1683
(dp1684
sS'226'
p1685
(dp1686
sS'225'
p1687
(dp1688
sS'224'
p1689
(dp1690
Vu
p1691
(lp1692
Vpolitics
p1693
asVhappiness
p1694
(lp1695
g1693
assS'223'
p1696
(dp1697
Vreturns
p1698
(lp1699
Vpolitics
p1700
asg1691
(lp1701
g1700
assS'222'
p1702
(dp1703
Vlives
p1704
(lp1705
Vpolitics
p1706
assS'221'
p1707
(dp1708
VA
p1709
(lp1710
Vpolitics
p1711
asVman
p1712
(lp1713
g1711
assS'220'
p1714
(dp1715
sS'114'
p1716
(dp1717
Vby-product
p1718
(lp1719
Vpolitics
p1720
assS'391'
p1721
(dp1722
sS'390'
p1723
(dp1724
Vsports
p1725
(lp1726
Vpolitics
p1727
assS'151'
p1728
(dp1729
sS'150'
p1730
(dp1731
Vday
p1732
(lp1733
Vpolitics
p1734
asVmartyrdom
p1735
(lp1736
g1734
assS'153'
p1737
(dp1738
Vcome
p1739
(lp1740
Vpolitics
p1741
assS'152'
p1742
(dp1743
Vlove
p1744
(lp1745
Vpolitics
p1746
asVcheer
p1747
(lp1748
g1746
asVsunshine
p1749
(lp1750
g1746
asVlaughter
p1751
(lp1752
g1746
asVwarmth
p1753
(lp1754
g1746
assS'155'
p1755
(dp1756
sS'154'
p1757
(dp1758
sS'157'
p1759
(dp1760
VMarch
p1761
(lp1762
Vpolitics
p1763
assS'156'
p1764
(dp1765
Vawards
p1766
(lp1767
Vpolitics
p1768
assS'159'
p1769
(dp1770
Vage
p1771
(lp1772
Vpolitics
p1773
assS'158'
p1774
(dp1775
sS'112'
p1776
(dp1777
sS'83'
p1778
(dp1779
Vfather
p1780
(lp1781
Vpolitics
p1782
assS'48'
p1783
(dp1784
sS'49'
p1785
(dp1786
Vthing
p1787
(lp1788
Vpolitics
p1789
asVVishnu
p1790
(lp1791
g1789
assS'46'
p1792
(dp1793
Vtheater
p1794
(lp1795
Vpolitics
p1796
asVroots
p1797
(lp1798
g1796
assS'47'
p1799
(dp1800
Vlimitations
p1801
(lp1802
Vpolitics
p1803
asVtour
p1804
(lp1805
g1803
assS'44'
p1806
(dp1807
sS'45'
p1808
(dp1809
sS'42'
p1810
(dp1811
Vsociety
p1812
(lp1813
Vpolitics
p1814
asVhealth
p1815
(lp1816
g1814
assS'43'
p1817
(dp1818
g583
(lp1819
Vpolitics
p1820
asVworried
p1821
(lp1822
g1820
assS'40'
p1823
(dp1824
sS'41'
p1825
(dp1826
sS'5'
p1827
(dp1828
Vcontribution
p1829
(lp1830
Vpolitics
p1831
asVmusic
p1832
(lp1833
g1831
asVSoul
p1834
(lp1835
g1831
ass.