(dp0
S'344'
p1
(dp2
Vamp
p3
S'positive'
p4
sV#InternationalNelsonMandelaDay
p5
S'neutral'
p6
sVability
p7
g6
sVoccasion
p8
g4
ssS'0'
p9
(dp10
Vchieftain
p11
g6
sVleader
p12
g6
ssS'346'
p13
(dp14
V#DuniyaRashmi
p15
g6
sVBirthday
p16
g6
ssS'347'
p17
(dp18
Vcome
p19
g6
sVdreams
p20
g6
ssS'340'
p21
(dp22
Vchampion
p23
g4
sVsystem
p24
g6
sVhttps://t.co/ceqLpknxpR
p25
g4
sVpast
p26
g6
sVtitles
p27
S'negative'
p28
sVFederer
p29
g6
sVmoves
p30
g6
ssS'341'
p31
(dp32
Vawards
p33
g4
ssS'342'
p34
(dp35
Vamp
p36
g4
sV#Cinema
p37
g6
sVicons
p38
g6
ssS'343'
p39
(dp40
V#BirthAnniversary
p41
g6
ssS'348'
p42
(dp43
sS'349'
p44
(dp45
V@BJP4Karnataka
p46
g28
sVactions
p47
g6
sV#OneUnionManyFlags
p48
g6
sVAnti-Kannada
p49
g6
ssS'298'
p50
(dp51
Vhealth
p52
g4
ssS'299'
p53
(dp54
VLife
p55
g6
ssS'296'
p56
(dp57
Vsatellite
p58
g28
sV#GSAT
p59
g28
sVsearch
p60
g6
sVrelay
p61
g4
sVlaunch
p62
g28
ssS'297'
p63
(dp64
VBirthday
p65
g6
ssS'294'
p66
(dp67
VRecord
p68
g6
ssS'295'
p69
(dp70
sS'292'
p71
(dp72
Vlight
p73
g6
sV#Yoga
p74
g6
sVMusic
p75
g6
sVlanguage
p76
g4
ssS'293'
p77
(dp78
sS'290'
p79
(dp80
Vrevolution
p81
g4
ssS'291'
p82
(dp83
Vstarred
p84
g6
sVwho
p85
g6
ssS'199'
p86
(dp87
Vvoid
p88
g4
ssS'198'
p89
(dp90
sS'195'
p91
(dp92
VIndia
p93
g6
sVJuly
p94
g28
sVMarch
p95
g6
ssS'194'
p96
(dp97
Vteachings
p98
g6
sVpeace
p99
g4
sVthreat
p100
g6
ssS'197'
p101
(dp102
sS'196'
p103
(dp104
Voutlook.An
p105
g28
sVoldest
p106
g6
sVMinister
p107
g6
sVhe
p108
g6
ssS'191'
p109
(dp110
VJourney
p111
g4
ssS'190'
p112
(dp113
Vyou.The
p114
g4
sVTributes
p115
g4
sVwealth
p116
g4
sVgift
p117
g4
ssS'193'
p118
(dp119
sS'192'
p120
(dp121
sS'270'
p122
(dp123
Vdrive
p124
g6
sVhttps://t.co/zbEYjmZBY4
p125
g6
sVplantation
p126
g6
sVbirthday
p127
g4
sV@yuvakannadigas
p128
g6
sV@TheParulYadav
p129
g4
ssS'271'
p130
(dp131
Vsuccess
p132
g4
sVendeavours
p133
g28
ssS'272'
p134
(dp135
Vmake
p136
g6
ssS'273'
p137
(dp138
Vwriters
p139
g6
sVAward
p140
g4
ssS'274'
p141
(dp142
VB'day
p143
g6
ssS'275'
p144
(dp145
sS'276'
p146
(dp147
Vlove
p148
g4
ssS'277'
p149
(dp150
sS'278'
p151
(dp152
VVivah
p153
g4
ssS'279'
p154
(dp155
sS'108'
p156
(dp157
sS'109'
p158
(dp159
Vacumen
p160
g28
sVIndustry
p161
g6
ssS'102'
p162
(dp163
Vhttps://t.co/Ft0oWSlVvC
p164
g4
ssS'103'
p165
(dp166
VFighter
p167
g6
sVtheme
p168
g4
sVIndia
p169
g6
sVScience
p170
g4
ssS'100'
p171
(dp172
Vrunner
p173
g6
sVDarshan
p174
g6
ssS'101'
p175
(dp176
Vamp
p177
g4
ssS'106'
p178
(dp179
Vamp
p180
g6
sVage
p181
g4
sVbrand
p182
g4
sVRaghu
p183
g6
ssS'107'
p184
(dp185
sS'104'
p186
(dp187
sS'105'
p188
(dp189
VAwards
p190
g6
sVMPC
p191
g4
sVAward
p192
g6
sVteams
p193
g4
ssS'39'
p194
(dp195
sS'38'
p196
(dp197
Vyou
p198
g6
sVlook
p199
g6
sVare
p200
g6
ssS'33'
p201
(dp202
sS'32'
p203
(dp204
VDevi
p205
g6
sVprodigy
p206
g28
ssS'31'
p207
(dp208
VHangal
p209
g6
sVsinger
p210
g4
ssS'30'
p211
(dp212
VLabour
p213
g6
sVsustainer
p214
g28
ssS'37'
p215
(dp216
Vvirtue
p217
g4
ssS'36'
p218
(dp219
sS'35'
p220
(dp221
sS'34'
p222
(dp223
Vhome
p224
g4
sVwork
p225
g28
ssS'339'
p226
(dp227
sS'338'
p228
(dp229
sS'335'
p230
(dp231
sS'334'
p232
(dp233
sS'337'
p234
(dp235
sS'336'
p236
(dp237
sS'331'
p238
(dp239
sS'330'
p240
(dp241
Vattack
p242
g6
sVfamilies
p243
g6
ssS'333'
p244
(dp245
Vhome
p246
g4
sVJagruth
p247
g6
ssS'332'
p248
(dp249
Vkingship
p250
g4
ssS'345'
p251
(dp252
sS'6'
p253
(dp254
Vspot
p255
g6
ssS'99'
p256
(dp257
VRanganath
p258
g4
sVwinner
p259
g4
ssS'98'
p260
(dp261
VMedal
p262
g6
sVgoal
p263
g4
sVdevotion
p264
g4
sVN
p265
g4
ssS'91'
p266
(dp267
sS'90'
p268
(dp269
VPlayer
p270
g4
sVHumpy
p271
g6
ssS'93'
p272
(dp273
sS'92'
p274
(dp275
V@imVkohli
p276
g6
sVwho
p277
g6
sVactor
p278
g4
sVworks
p279
g6
ssS'95'
p280
(dp281
Vmake
p282
g6
ssS'94'
p283
(dp284
VTest
p285
g4
sV200
p286
g6
sVwriter
p287
g6
sVpopular
p288
g6
ssS'97'
p289
(dp290
VChallenges
p291
g6
sVpart
p292
g28
ssS'96'
p293
(dp294
sS'238'
p295
(dp296
Vbirthday
p297
g4
ssS'239'
p298
(dp299
Veveryone
p300
g6
sVPlanet
p301
g6
sVBirthday
p302
g6
sVNews
p303
g6
sVworld
p304
g28
sVhttps://t.co/gek2SMd4Zk
p305
g4
sVFuture
p306
g6
ssS'234'
p307
(dp308
Vsafety
p309
g4
ssS'235'
p310
(dp311
VJayanthi
p312
g4
ssS'236'
p313
(dp314
V#InternationalDanceDay
p315
g6
ssS'237'
p316
(dp317
VYou
p318
g6
sVworker
p319
g4
sV#LabourDay
p320
g6
sVfounder
p321
g28
ssS'230'
p322
(dp323
Vamp
p324
g4
sVmatters
p325
g4
ssS'231'
p326
(dp327
V#FerozKhan
p328
g6
ssS'232'
p329
(dp330
sS'233'
p331
(dp332
Vworld
p333
g28
sVsafe
p334
g6
sVknow
p335
g6
sVerror
p336
g28
ssS'1'
p337
(dp338
sS'146'
p339
(dp340
Vlife
p341
g6
ssS'147'
p342
(dp343
sS'144'
p344
(dp345
Vcommunities
p346
g28
sVvalues
p347
g4
sVforests
p348
g6
ssS'145'
p349
(dp350
sS'142'
p351
(dp352
sS'143'
p353
(dp354
Vmovements
p355
g6
ssS'140'
p356
(dp357
sS'141'
p358
(dp359
sS'148'
p360
(dp361
sS'149'
p362
(dp363
Vlives
p364
g6
ssS'133'
p365
(dp366
sS'132'
p367
(dp368
Vtime
p369
g6
ssS'131'
p370
(dp371
V#Holi
p372
g6
sVday
p373
g4
ssS'130'
p374
(dp375
V@robbieuthappa
p376
g6
ssS'137'
p377
(dp378
Vamp
p379
g4
ssS'136'
p380
(dp381
Vher.A
p382
g6
sVinspiration
p383
g4
ssS'135'
p384
(dp385
sS'134'
p386
(dp387
Vrelies
p388
g6
sVbowler
p389
g28
sV@Vinay_Kumar_R
p390
g6
sVwho
p391
g6
ssS'139'
p392
(dp393
sS'138'
p394
(dp395
VSir
p396
g6
sVyou
p397
g6
ssS'24'
p398
(dp399
sS'25'
p400
(dp401
VMarshal
p402
g6
sVrank
p403
g4
sVofficers
p404
g28
ssS'26'
p405
(dp406
Vcontribution
p407
g28
sVhttps://t.co/GLLb0uOxC3
p408
g6
sVartist
p409
g4
ssS'27'
p410
(dp411
VPadukone
p412
g6
sVlaurels
p413
g6
sVplayer
p414
g6
ssS'20'
p415
(dp416
sS'21'
p417
(dp418
Vcome
p419
g6
ssS'22'
p420
(dp421
VI
p422
g6
sVway
p423
g4
sVget
p424
g6
ssS'23'
p425
(dp426
sS'28'
p427
(dp428
VRevolution
p429
g6
sVright
p430
g4
ssS'29'
p431
(dp432
VFreedom
p433
g6
sVright
p434
g4
ssS'379'
p435
(dp436
Vimportance
p437
g4
sVfuels
p438
g6
sVfuture
p439
g4
ssS'378'
p440
(dp441
Vplanet
p442
g28
sVcreature
p443
g6
ssS'371'
p444
(dp445
Vtake
p446
g6
ssS'370'
p447
(dp448
VPunyatithi
p449
g6
sVRevolution
p450
g4
sVFather
p451
g6
ssS'373'
p452
(dp453
sS'372'
p454
(dp455
V#LungCancer
p456
g6
ssS'375'
p457
(dp458
Vhttps://t.co/oeSVYcsc7Q
p459
g6
ssS'374'
p460
(dp461
Vweek
p462
g28
sVBeer
p463
g6
sVday
p464
g6
sVtastes
p465
g6
ssS'377'
p466
(dp467
Vlions
p468
g28
ssS'376'
p469
(dp470
VOurs
p471
g6
sVhttps://t.co/nMAVBgXeAD
p472
g6
sVimpetus
p473
g28
sVdrive
p474
g28
ssS'393'
p475
(dp476
sS'392'
p477
(dp478
Vsoul
p479
g4
sVfamily
p480
g4
ssS'88'
p481
(dp482
VIndia
p483
g4
sVharmony
p484
g6
ssS'89'
p485
(dp486
Vpersonality
p487
g4
ssS'82'
p488
(dp489
sS'181'
p490
(dp491
Voccasion
p492
g4
sVDashavataras
p493
g6
sVbirth
p494
g4
sV#LordRama
p495
g6
sV#Vishnu
p496
g6
ssS'80'
p497
(dp498
VProf.Mahadevappa
p499
g6
ssS'81'
p500
(dp501
V#IPLAuction
p502
g6
sVpurchases
p503
g4
ssS'86'
p504
(dp505
Vplayer
p506
g4
sVfigure
p507
g4
ssS'87'
p508
(dp509
Vpassion
p510
g6
sVstepped
p511
g6
sVcall
p512
g4
sVhe
p513
g6
ssS'84'
p514
(dp515
g422
g6
sVm
p516
g28
ssS'85'
p517
(dp518
sS'7'
p519
(dp520
VBlind
p521
g6
sVnot
p522
g6
ssS'245'
p523
(dp524
VBharat
p525
g6
ssS'244'
p526
(dp527
sS'247'
p528
(dp529
Vimportance
p530
g4
sVnation
p531
g4
sVresearch
p532
g6
ssS'246'
p533
(dp534
sS'241'
p535
(dp536
Vgift
p537
g28
ssS'240'
p538
(dp539
sS'243'
p540
(dp541
Vcharge
p542
g28
sVDengue
p543
g6
sVt
p544
g28
ssS'242'
p545
(dp546
Vthing
p547
g28
sVFamily
p548
g6
ssS'249'
p549
(dp550
Vprosperity
p551
g4
sVamp
p552
g6
ssS'248'
p553
(dp554
VMuseums
p555
g6
sVmeans
p556
g28
ssS'179'
p557
(dp558
V#Actor
p559
g4
ssS'178'
p560
(dp561
Vparts
p562
g28
ssS'177'
p563
(dp564
Vhttps://t.co/xY69mIrUqf
p565
g6
sVlot
p566
g4
ssS'176'
p567
(dp568
V#FilmfareAward
p569
g6
ssS'175'
p570
(dp571
Vacted
p572
g6
sVHe
p573
g6
ssS'174'
p574
(dp575
Vhearts
p576
g28
ssS'173'
p577
(dp578
Vbattle
p579
g6
ssS'172'
p580
(dp581
sS'171'
p582
(dp583
sS'170'
p584
(dp585
Vcustomer
p586
g6
sVroaches
p587
g6
ssS'182'
p588
(dp589
sS'183'
p590
(dp591
V#KishoriAmonkar
p592
g28
sVsets
p593
g6
ssS'180'
p594
(dp595
sS'2'
p596
(dp597
Vroles
p598
g4
ssS'186'
p599
(dp600
sS'187'
p601
(dp602
sS'184'
p603
(dp604
Vremain
p605
g6
ssS'185'
p606
(dp607
sS'188'
p608
(dp609
V#SaltMarch
p610
g6
sVact
p611
g4
ssS'189'
p612
(dp613
sS'11'
p614
(dp615
VWe
p616
g6
sVIndians
p617
g28
ssS'10'
p618
(dp619
sS'13'
p620
(dp621
Vloss
p622
g4
sVlife
p623
g4
ssS'12'
p624
(dp625
Vnature
p626
g6
ssS'15'
p627
(dp628
sS'14'
p629
(dp630
sS'17'
p631
(dp632
Vfailure
p633
g28
ssS'16'
p634
(dp635
Vlife
p636
g4
ssS'19'
p637
(dp638
sS'18'
p639
(dp640
Vsuits
p641
g4
ssS'62'
p642
(dp643
Vhttps://t.co/tTV5ZgzFEl
p644
g4
sVway
p645
g28
sVsaxophonist
p646
g28
ssS'322'
p647
(dp648
VGeetha
p649
g6
ssS'323'
p650
(dp651
Vbirthday
p652
g4
ssS'320'
p653
(dp654
Vfriend
p655
g6
ssS'321'
p656
(dp657
Vnovelist
p658
g4
sVwho
p659
g6
ssS'326'
p660
(dp661
Vfilmmaker
p662
g4
ssS'327'
p663
(dp664
sS'324'
p665
(dp666
Vday
p667
g4
sVhttps://t.co/YeE3giurFh
p668
g6
ssS'325'
p669
(dp670
VPurnima
p671
g6
ssS'328'
p672
(dp673
Vmovies
p674
g6
ssS'329'
p675
(dp676
Vday
p677
g4
sV#WorldPopulationDay
p678
g6
ssS'201'
p679
(dp680
Vmartyrs
p681
g28
sVmassacre
p682
g28
ssS'200'
p683
(dp684
sS'203'
p685
(dp686
Vwoman
p687
g28
sV#NishaMillet
p688
g6
ssS'202'
p689
(dp690
Vremain
p691
g6
ssS'205'
p692
(dp693
Vbirthday
p694
g28
sVhttps://t.co/7hEEMCBmbw
p695
g4
ssS'204'
p696
(dp697
sS'207'
p698
(dp699
Vobservance
p700
g6
sVDay
p701
g4
ssS'206'
p702
(dp703
Vmoment
p704
g28
sVawards
p705
g28
sVIt
p706
g6
ssS'209'
p707
(dp708
Vbridges
p709
g28
sVBooks
p710
g6
sVmeans
p711
g6
ssS'208'
p712
(dp713
sS'77'
p714
(dp715
Vcoaching
p716
g4
ssS'76'
p717
(dp718
Vbusinessman
p719
g6
sVwork
p720
g6
ssS'75'
p721
(dp722
sS'74'
p723
(dp724
Vimagination
p725
g4
sVhand
p726
g4
ssS'73'
p727
(dp728
Vname
p729
g4
sVHe
p730
g6
ssS'72'
p731
(dp732
VKeerthi
p733
g6
sVcommentator
p734
g6
ssS'71'
p735
(dp736
Vmusician
p737
g6
sVGawai
p738
g6
ssS'70'
p739
(dp740
Vfear
p741
g4
ssS'79'
p742
(dp743
VIndustry
p744
g6
ssS'78'
p745
(dp746
sS'8'
p747
(dp748
sS'120'
p749
(dp750
sS'121'
p751
(dp752
sS'122'
p753
(dp754
Vworlds
p755
g4
ssS'123'
p756
(dp757
sS'124'
p758
(dp759
sS'125'
p760
(dp761
Vamp
p762
g28
sVpapers
p763
g6
ssS'126'
p764
(dp765
VPoojary
p766
g4
sVawesome
p767
g6
sVrole
p768
g4
sVreigning
p769
g6
sVplayer
p770
g4
ssS'127'
p771
(dp772
Vhttps://t.co/m6WsYZdT02
p773
g6
sVperformer
p774
g4
sVmeters
p775
g6
sVevents
p776
g6
ssS'128'
p777
(dp778
Vboundaries
p779
g4
ssS'129'
p780
(dp781
sS'319'
p782
(dp783
VReturns
p784
g6
sVwishes
p785
g6
ssS'318'
p786
(dp787
Vcricket
p788
g6
ssS'313'
p789
(dp790
VSathyu
p791
g6
sVpersonality
p792
g4
ssS'312'
p793
(dp794
VTenkila
p795
g6
sVexperiences
p796
g4
sVBengalurean
p797
g6
ssS'311'
p798
(dp799
sS'310'
p800
(dp801
sS'317'
p802
(dp803
Vlegend
p804
g6
ssS'316'
p805
(dp806
sS'315'
p807
(dp808
Vwishes
p809
g6
sV@YuvaKannadigas
p810
g6
ssS'314'
p811
(dp812
sS'3'
p813
(dp814
Vrace
p815
g6
sVbuffalo
p816
g6
ssS'368'
p817
(dp818
sS'369'
p819
(dp820
sS'366'
p821
(dp822
V#SaveTheTiger
p823
g6
ssS'367'
p824
(dp825
VO'Dwyer
p826
g6
ssS'364'
p827
(dp828
sS'365'
p829
(dp830
sS'362'
p831
(dp832
Vtreatment
p833
g6
ssS'363'
p834
(dp835
Vwrld
p836
g4
ssS'360'
p837
(dp838
Vtributes
p839
g4
sV@YuvaKannadigas
p840
g28
sVus
p841
g6
sVinspiration
p842
g6
ssS'361'
p843
(dp844
Vhttps://t.co/lCIKDbsaY1
p845
g6
sV#HappyBirthdaySaiKumar
p846
g6
ssS'380'
p847
(dp848
sS'381'
p849
(dp850
sS'382'
p851
(dp852
VFauj
p853
g6
sVanniversary
p854
g6
ssS'383'
p855
(dp856
V#VijayLakshmiPandit
p857
g6
ssS'384'
p858
(dp859
VPresident
p860
g4
sVWriter
p861
g6
sVyouth
p862
g6
sVChairman
p863
g6
sVhttps://t.co/nt1g7gvfZL
p864
g6
sV#SudhaMurthy
p865
g6
ssS'385'
p866
(dp867
Vservices
p868
g28
sV#WorldHumanitarianDay
p869
g4
sVworkers
p870
g6
sVlives
p871
g28
sVothers
p872
g6
ssS'386'
p873
(dp874
V#Malaria
p875
g6
sVmosquitos
p876
g6
ssS'387'
p877
(dp878
sS'388'
p879
(dp880
Vways
p881
g4
ssS'389'
p882
(dp883
sS'60'
p884
(dp885
sS'61'
p886
(dp887
Vgame
p888
g4
sVNobody
p889
g6
ssS'258'
p890
(dp891
Vfamily
p892
g4
ssS'259'
p893
(dp894
sS'64'
p895
(dp896
Vmusician
p897
g28
sVV.
p898
g6
ssS'65'
p899
(dp900
VHanumanthaiah
p901
g28
sVMinister
p902
g4
ssS'66'
p903
(dp904
VRajamma
p905
g4
sVtold
p906
g6
ssS'67'
p907
(dp908
g422
g6
sVreceived
p909
g6
sVeducation
p910
g4
ssS'68'
p911
(dp912
Vscientist
p913
g4
sVHosmane
p914
g6
ssS'69'
p915
(dp916
Vsinger
p917
g4
sVMansur
p918
g6
ssS'250'
p919
(dp920
VLife
p921
g6
sVfragile
p922
g6
ssS'251'
p923
(dp924
VCondolences
p925
g6
sVmost
p926
g6
sVconnected
p927
g6
sVlot
p928
g4
sVCharm
p929
g6
sVcelebration
p930
g4
ssS'256'
p931
(dp932
sS'257'
p933
(dp934
sS'254'
p935
(dp936
Voperations
p937
g6
sVpersonnel
p938
g6
sVState
p939
g6
sVDestination
p940
g6
sVKarnataka
p941
g6
ssS'255'
p942
(dp943
VBirthday.Stay
p944
g4
ssS'168'
p945
(dp946
sS'169'
p947
(dp948
VCCD
p949
g6
ssS'164'
p950
(dp951
V#NationalAward
p952
g6
ssS'165'
p953
(dp954
sS'166'
p955
(dp956
V@PrajwalDevaraj
p957
g6
sVactor
p958
g4
ssS'167'
p959
(dp960
V@sprabhu86
p961
g6
ssS'160'
p962
(dp963
VLit
p964
g6
ssS'161'
p965
(dp966
Vtalents
p967
g4
sVwriters
p968
g4
ssS'162'
p969
(dp970
Vgame
p971
g28
ssS'163'
p972
(dp973
sS'9'
p974
(dp975
Vcontemplate
p976
g6
ssS'357'
p977
(dp978
Vsouls
p979
g4
ssS'356'
p980
(dp981
sS'355'
p982
(dp983
sS'354'
p984
(dp985
sS'353'
p986
(dp987
sS'352'
p988
(dp989
Vdates
p990
g6
sVgame.From
p991
g28
ssS'351'
p992
(dp993
VPresident
p994
g28
sVIndia
p995
g6
ssS'350'
p996
(dp997
VRevolution
p998
g28
ssS'359'
p999
(dp1000
V#TuesdayThought
p1001
g4
ssS'358'
p1002
(dp1003
Vscientist
p1004
g4
sVdemise
p1005
g4
ssS'216'
p1006
(dp1007
sS'217'
p1008
(dp1009
Vexperiments
p1010
g6
sVastronomy
p1011
g28
ssS'214'
p1012
(dp1013
sS'215'
p1014
(dp1015
Vrecovery
p1016
g4
ssS'212'
p1017
(dp1018
VThere
p1019
g6
ssS'213'
p1020
(dp1021
Vcategory
p1022
g4
ssS'210'
p1023
(dp1024
V#Marathon
p1025
g6
sVcakewalk
p1026
g28
ssS'211'
p1027
(dp1028
V2016
p1029
g6
sVSafe
p1030
g28
ssS'218'
p1031
(dp1032
VMay
p1033
g6
sVGaming
p1034
g4
ssS'219'
p1035
(dp1036
Vboost
p1037
g6
sVStartups
p1038
g4
sVIndia
p1039
g6
ssS'289'
p1040
(dp1041
Vwelcome
p1042
g6
ssS'288'
p1043
(dp1044
Vyear
p1045
g4
ssS'4'
p1046
(dp1047
Vgirl
p1048
g4
sVwhole
p1049
g6
ssS'281'
p1050
(dp1051
Vtype
p1052
g28
sVpeople
p1053
g28
ssS'280'
p1054
(dp1055
sS'283'
p1056
(dp1057
VDentist
p1058
g6
ssS'282'
p1059
(dp1060
V@ShamitaMalnad
p1061
g6
sVwish
p1062
g6
sVWe
p1063
g6
sV#HappyBirthday
p1064
g6
ssS'285'
p1065
(dp1066
Vcandidates
p1067
g28
ssS'284'
p1068
(dp1069
VLG
p1070
g6
sVactor
p1071
g4
ssS'287'
p1072
(dp1073
sS'286'
p1074
(dp1075
sS'263'
p1076
(dp1077
Vwho
p1078
g6
sVvictims
p1079
g28
ssS'262'
p1080
(dp1081
sS'261'
p1082
(dp1083
sS'260'
p1084
(dp1085
VLIFE
p1086
g6
sVreason
p1087
g6
ssS'267'
p1088
(dp1089
sS'266'
p1090
(dp1091
Vwin
p1092
g6
sVstraight
p1093
g6
ssS'265'
p1094
(dp1095
sS'264'
p1096
(dp1097
sS'269'
p1098
(dp1099
Vresponsibility
p1100
g4
ssS'268'
p1101
(dp1102
Vhome
p1103
g6
ssS'59'
p1104
(dp1105
Vplayer
p1106
g4
sVBopanna
p1107
g6
ssS'58'
p1108
(dp1109
Vbridge
p1110
g28
ssS'55'
p1111
(dp1112
sS'54'
p1113
(dp1114
Vsuccess
p1115
g4
ssS'57'
p1116
(dp1117
Vsolver
p1118
g6
ssS'56'
p1119
(dp1120
sS'51'
p1121
(dp1122
sS'50'
p1123
(dp1124
VMadhvacharya
p1125
g6
ssS'53'
p1126
(dp1127
Vduty
p1128
g4
ssS'52'
p1129
(dp1130
Vsociety
p1131
g4
ssS'63'
p1132
(dp1133
Vhttps://t.co/Qjs52D0o2E
p1134
g6
sVfilm
p1135
g4
ssS'115'
p1136
(dp1137
VBritain
p1138
g6
sVaward
p1139
g6
sVwonder
p1140
g4
ssS'252'
p1141
(dp1142
sS'117'
p1143
(dp1144
VConservation
p1145
g6
sVcontributions
p1146
g6
ssS'116'
p1147
(dp1148
sS'111'
p1149
(dp1150
Vcinema
p1151
g4
ssS'110'
p1152
(dp1153
Vopportunity
p1154
g6
ssS'113'
p1155
(dp1156
Vtea
p1157
g4
ssS'253'
p1158
(dp1159
VHappyBirthday
p1160
g28
sVwho
p1161
g6
sVyoung
p1162
g6
ssS'119'
p1163
(dp1164
sS'118'
p1165
(dp1166
Vwoman
p1167
g4
sVKatti
p1168
g6
sVleader
p1169
g4
ssS'308'
p1170
(dp1171
V#SwamiVivekananda
p1172
g6
sVTithi
p1173
g6
ssS'309'
p1174
(dp1175
sS'300'
p1176
(dp1177
Vus
p1178
g6
sVsocial
p1179
g6
ssS'301'
p1180
(dp1181
VThey
p1182
g6
sVincarnations
p1183
g4
ssS'302'
p1184
(dp1185
Vmankind
p1186
g6
sVservice
p1187
g4
sVdoctors
p1188
g6
ssS'303'
p1189
(dp1190
sS'304'
p1191
(dp1192
sS'305'
p1193
(dp1194
VCountry
p1195
g6
sVIndia
p1196
g6
ssS'306'
p1197
(dp1198
Vjokes
p1199
g6
sVr
p1200
g4
ssS'307'
p1201
(dp1202
V#KomalKumar
p1203
g4
sVactor
p1204
g4
ssS'229'
p1205
(dp1206
sS'228'
p1207
(dp1208
sS'227'
p1209
(dp1210
sS'226'
p1211
(dp1212
sS'225'
p1213
(dp1214
sS'224'
p1215
(dp1216
Vu
p1217
g6
sVhttps://t.co/NR6vKJt1RN
p1218
g6
sVhappiness
p1219
g6
ssS'223'
p1220
(dp1221
Vmaa
p1222
g6
sVreturns
p1223
g28
sg1217
g6
ssS'222'
p1224
(dp1225
Vlives
p1226
g6
ssS'221'
p1227
(dp1228
VA
p1229
g28
sVman
p1230
g28
ssS'220'
p1231
(dp1232
sS'114'
p1233
(dp1234
Vby-product
p1235
g6
ssS'391'
p1236
(dp1237
sS'390'
p1238
(dp1239
Vsports
p1240
g4
ssS'151'
p1241
(dp1242
sS'150'
p1243
(dp1244
VSingh
p1245
g4
sVday
p1246
g28
sVmartyrdom
p1247
g28
ssS'153'
p1248
(dp1249
Vcome
p1250
g6
ssS'152'
p1251
(dp1252
Vlove
p1253
g4
sVcheer
p1254
g4
sVsunshine
p1255
g6
sVlaughter
p1256
g6
sVwarmth
p1257
g4
ssS'155'
p1258
(dp1259
sS'154'
p1260
(dp1261
sS'157'
p1262
(dp1263
VMarch
p1264
g28
ssS'156'
p1265
(dp1266
Vawards
p1267
g4
ssS'159'
p1268
(dp1269
Vage
p1270
g28
ssS'158'
p1271
(dp1272
V#Kuchipudi
p1273
g4
sV#SudhaRani
p1274
g6
ssS'112'
p1275
(dp1276
sS'83'
p1277
(dp1278
Vfather
p1279
g4
sVhttps://t.co/2lnPCK1rLc
p1280
g4
ssS'48'
p1281
(dp1282
sS'49'
p1283
(dp1284
Vthing
p1285
g28
sVVishnu
p1286
g6
ssS'46'
p1287
(dp1288
Vtheater
p1289
g28
sVroots
p1290
g28
ssS'47'
p1291
(dp1292
Vlimitations
p1293
g28
sVtour
p1294
g28
ssS'44'
p1295
(dp1296
sS'45'
p1297
(dp1298
sS'42'
p1299
(dp1300
Vsociety
p1301
g4
sVhealth
p1302
g4
ssS'43'
p1303
(dp1304
g422
g6
sVworried
p1305
g6
ssS'40'
p1306
(dp1307
sS'41'
p1308
(dp1309
sS'5'
p1310
(dp1311
Vcontribution
p1312
g4
sVmusic
p1313
g4
sVSoul
p1314
g6
ss.