(dp0
S'344'
p1
(dp2
Vamp
p3
(dp4
Vpolitics
p5
S'positive'
p6
ssVability
p7
(dp8
g5
S'neutral'
p9
ssVoccasion
p10
(dp11
g5
g6
sssS'0'
p12
(dp13
Vchieftain
p14
(dp15
Vpolitics
p16
g9
ssVleader
p17
(dp18
g16
g9
sssS'346'
p19
(dp20
VBirthday
p21
(dp22
Vpolitics
p23
g9
sssS'347'
p24
(dp25
Vcome
p26
(dp27
Vpolitics
p28
g9
ssVdreams
p29
(dp30
g28
g9
sssS'340'
p31
(dp32
Vpast
p33
(dp34
Vpolitics
p35
g9
ssVmoves
p36
(dp37
g35
g9
ssVtitles
p38
(dp39
g35
S'negative'
p40
ssVsystem
p41
(dp42
g35
g9
ssVchampion
p43
(dp44
g35
g6
sssS'341'
p45
(dp46
Vawards
p47
(dp48
Vpolitics
p49
g6
sssS'342'
p50
(dp51
Vamp
p52
(dp53
Vpolitics
p54
g6
ssVicons
p55
(dp56
g54
g9
sssS'343'
p57
(dp58
sS'348'
p59
(dp60
sS'349'
p61
(dp62
Vactions
p63
(dp64
Vpolitics
p65
g9
sssS'298'
p66
(dp67
Vhealth
p68
(dp69
Vpolitics
p70
g6
sssS'299'
p71
(dp72
VLife
p73
(dp74
Vpolitics
p75
g9
sssS'296'
p76
(dp77
Vsatellite
p78
(dp79
Vpolitics
p80
g40
ssVsearch
p81
(dp82
g80
g9
ssVrelay
p83
(dp84
g80
g6
ssVlaunch
p85
(dp86
g80
g40
sssS'297'
p87
(dp88
VBirthday
p89
(dp90
Vpolitics
p91
g9
sssS'294'
p92
(dp93
VRecord
p94
(dp95
Vpolitics
p96
g9
sssS'295'
p97
(dp98
sS'292'
p99
(dp100
Vlight
p101
(dp102
Vpolitics
p103
g9
ssVMusic
p104
(dp105
g103
g9
ssVlanguage
p106
(dp107
g103
g6
sssS'293'
p108
(dp109
sS'290'
p110
(dp111
Vrevolution
p112
(dp113
Vpolitics
p114
g6
sssS'291'
p115
(dp116
Vstarred
p117
(dp118
Vpolitics
p119
g9
ssVwho
p120
(dp121
g119
g9
sssS'199'
p122
(dp123
Vvoid
p124
(dp125
Vpolitics
p126
g6
sssS'198'
p127
(dp128
sS'195'
p129
(dp130
VIndia
p131
(dp132
Vpolitics
p133
g9
ssVJuly
p134
(dp135
g133
g40
ssVMarch
p136
(dp137
g133
g9
sssS'194'
p138
(dp139
Vteachings
p140
(dp141
Vpolitics
p142
g9
ssVpeace
p143
(dp144
g142
g6
ssVthreat
p145
(dp146
g142
g9
sssS'197'
p147
(dp148
sS'196'
p149
(dp150
Voldest
p151
(dp152
Vpolitics
p153
g9
ssVMinister
p154
(dp155
g153
g9
ssVhe
p156
(dp157
g153
g9
sssS'191'
p158
(dp159
VJourney
p160
(dp161
Vpolitics
p162
g6
sssS'190'
p163
(dp164
VTributes
p165
(dp166
Vpolitics
p167
g6
ssVwealth
p168
(dp169
g167
g6
ssVgift
p170
(dp171
g167
g6
sssS'193'
p172
(dp173
sS'192'
p174
(dp175
sS'270'
p176
(dp177
Vplantation
p178
(dp179
Vpolitics
p180
g9
ssVbirthday
p181
(dp182
g180
g6
ssVdrive
p183
(dp184
g180
g9
sssS'271'
p185
(dp186
Vsuccess
p187
(dp188
Vpolitics
p189
g6
ssVendeavours
p190
(dp191
g189
g40
sssS'272'
p192
(dp193
Vmake
p194
(dp195
Vpolitics
p196
g9
sssS'273'
p197
(dp198
Vwriters
p199
(dp200
Vpolitics
p201
g9
ssVAward
p202
(dp203
g201
g6
sssS'274'
p204
(dp205
sS'275'
p206
(dp207
sS'276'
p208
(dp209
Vlove
p210
(dp211
Vpolitics
p212
g6
sssS'277'
p213
(dp214
sS'278'
p215
(dp216
sS'279'
p217
(dp218
sS'108'
p219
(dp220
sS'109'
p221
(dp222
Vacumen
p223
(dp224
Vpolitics
p225
g40
ssVIndustry
p226
(dp227
g225
g9
sssS'102'
p228
(dp229
sS'103'
p230
(dp231
VFighter
p232
(dp233
Vpolitics
p234
g9
ssVtheme
p235
(dp236
g234
g6
ssVIndia
p237
(dp238
g234
g9
ssVScience
p239
(dp240
g234
g6
sssS'100'
p241
(dp242
Vrunner
p243
(dp244
Vpolitics
p245
g9
sssS'101'
p246
(dp247
Vamp
p248
(dp249
Vpolitics
p250
g6
sssS'106'
p251
(dp252
Vamp
p253
(dp254
Vpolitics
p255
g9
ssVage
p256
(dp257
g255
g6
ssVbrand
p258
(dp259
g255
g6
sssS'107'
p260
(dp261
sS'104'
p262
(dp263
sS'105'
p264
(dp265
VAwards
p266
(dp267
Vpolitics
p268
g9
ssVAward
p269
(dp270
g268
g9
ssVteams
p271
(dp272
g268
g6
sssS'39'
p273
(dp274
sS'38'
p275
(dp276
Vlook
p277
(dp278
Vpolitics
p279
g9
ssVare
p280
(dp281
g279
g9
sssS'33'
p282
(dp283
sS'32'
p284
(dp285
VDevi
p286
(dp287
Vpolitics
p288
g9
ssVprodigy
p289
(dp290
g288
g40
sssS'31'
p291
(dp292
Vsinger
p293
(dp294
Vpolitics
p295
g6
sssS'30'
p296
(dp297
VLabour
p298
(dp299
Vpolitics
p300
g9
ssVsustainer
p301
(dp302
g300
g40
sssS'37'
p303
(dp304
Vvirtue
p305
(dp306
Vpolitics
p307
g6
sssS'36'
p308
(dp309
sS'35'
p310
(dp311
sS'34'
p312
(dp313
Vhome
p314
(dp315
Vpolitics
p316
g6
ssVwork
p317
(dp318
g316
g40
sssS'339'
p319
(dp320
sS'338'
p321
(dp322
sS'335'
p323
(dp324
sS'334'
p325
(dp326
sS'337'
p327
(dp328
sS'336'
p329
(dp330
sS'331'
p331
(dp332
sS'330'
p333
(dp334
Vattack
p335
(dp336
Vpolitics
p337
g9
ssVfamilies
p338
(dp339
g337
g9
sssS'333'
p340
(dp341
Vhome
p342
(dp343
Vpolitics
p344
g6
sssS'332'
p345
(dp346
Vkingship
p347
(dp348
Vpolitics
p349
g6
sssS'345'
p350
(dp351
sS'6'
p352
(dp353
Vspot
p354
(dp355
Vpolitics
p356
g9
sssS'99'
p357
(dp358
Vwinner
p359
(dp360
Vpolitics
p361
g6
sssS'98'
p362
(dp363
VMedal
p364
(dp365
Vpolitics
p366
g9
ssVgoal
p367
(dp368
g366
g6
ssVdevotion
p369
(dp370
g366
g6
ssVN
p371
(dp372
g366
g6
sssS'91'
p373
(dp374
sS'90'
p375
(dp376
VPlayer
p377
(dp378
Vpolitics
p379
g6
sssS'93'
p380
(dp381
sS'92'
p382
(dp383
Vwho
p384
(dp385
Vpolitics
p386
g9
ssVactor
p387
(dp388
g386
g6
ssVworks
p389
(dp390
g386
g9
sssS'95'
p391
(dp392
Vmake
p393
(dp394
Vpolitics
p395
g9
sssS'94'
p396
(dp397
VTest
p398
(dp399
Vpolitics
p400
g6
ssV200
p401
(dp402
g400
g9
ssVwriter
p403
(dp404
g400
g9
ssVpopular
p405
(dp406
g400
g9
sssS'97'
p407
(dp408
VChallenges
p409
(dp410
Vpolitics
p411
g9
ssVpart
p412
(dp413
g411
g40
sssS'96'
p414
(dp415
sS'238'
p416
(dp417
Vbirthday
p418
(dp419
Vpolitics
p420
g6
sssS'239'
p421
(dp422
VPlanet
p423
(dp424
Vpolitics
p425
g9
ssVNews
p426
(dp427
g425
g9
ssVBirthday
p428
(dp429
g425
g9
ssVFuture
p430
(dp431
g425
g9
ssVworld
p432
(dp433
g425
g40
sssS'234'
p434
(dp435
Vsafety
p436
(dp437
Vpolitics
p438
g6
sssS'235'
p439
(dp440
sS'236'
p441
(dp442
sS'237'
p443
(dp444
Vworker
p445
(dp446
Vpolitics
p447
g6
ssVfounder
p448
(dp449
g447
g40
sssS'230'
p450
(dp451
Vamp
p452
(dp453
Vpolitics
p454
g6
ssVmatters
p455
(dp456
g454
g6
sssS'231'
p457
(dp458
sS'232'
p459
(dp460
sS'233'
p461
(dp462
Vworld
p463
(dp464
Vpolitics
p465
g40
ssVsafe
p466
(dp467
g465
g9
ssVknow
p468
(dp469
g465
g9
ssVerror
p470
(dp471
g465
g40
sssS'1'
p472
(dp473
sS'146'
p474
(dp475
Vlife
p476
(dp477
Vpolitics
p478
g9
sssS'147'
p479
(dp480
sS'144'
p481
(dp482
Vcommunities
p483
(dp484
Vpolitics
p485
g40
ssVvalues
p486
(dp487
g485
g6
ssVforests
p488
(dp489
g485
g9
sssS'145'
p490
(dp491
sS'142'
p492
(dp493
sS'143'
p494
(dp495
Vmovements
p496
(dp497
Vpolitics
p498
g9
sssS'140'
p499
(dp500
sS'141'
p501
(dp502
sS'148'
p503
(dp504
sS'149'
p505
(dp506
Vlives
p507
(dp508
Vpolitics
p509
g9
sssS'133'
p510
(dp511
sS'132'
p512
(dp513
Vtime
p514
(dp515
Vpolitics
p516
g9
sssS'131'
p517
(dp518
Vday
p519
(dp520
Vpolitics
p521
g6
sssS'130'
p522
(dp523
sS'137'
p524
(dp525
Vamp
p526
(dp527
Vpolitics
p528
g6
sssS'136'
p529
(dp530
Vinspiration
p531
(dp532
Vpolitics
p533
g6
sssS'135'
p534
(dp535
sS'134'
p536
(dp537
Vrelies
p538
(dp539
Vpolitics
p540
g9
ssVbowler
p541
(dp542
g540
g40
ssVwho
p543
(dp544
g540
g9
sssS'139'
p545
(dp546
sS'138'
p547
(dp548
VSir
p549
(dp550
Vpolitics
p551
g9
sssS'24'
p552
(dp553
sS'25'
p554
(dp555
VMarshal
p556
(dp557
Vpolitics
p558
g9
ssVrank
p559
(dp560
g558
g6
ssVofficers
p561
(dp562
g558
g40
sssS'26'
p563
(dp564
Vcontribution
p565
(dp566
Vpolitics
p567
g40
ssVartist
p568
(dp569
g567
g6
sssS'27'
p570
(dp571
Vplayer
p572
(dp573
Vpolitics
p574
g9
ssVlaurels
p575
(dp576
g574
g9
sssS'20'
p577
(dp578
sS'21'
p579
(dp580
Vcome
p581
(dp582
Vpolitics
p583
g9
sssS'22'
p584
(dp585
VI
p586
(dp587
Vpolitics
p588
g9
ssVway
p589
(dp590
g588
g6
ssVget
p591
(dp592
g588
g9
sssS'23'
p593
(dp594
sS'28'
p595
(dp596
VRevolution
p597
(dp598
Vpolitics
p599
g9
ssVright
p600
(dp601
g599
g6
sssS'29'
p602
(dp603
VFreedom
p604
(dp605
Vpolitics
p606
g9
ssVright
p607
(dp608
g606
g6
sssS'379'
p609
(dp610
Vimportance
p611
(dp612
Vpolitics
p613
g6
ssVfuels
p614
(dp615
g613
g9
ssVfuture
p616
(dp617
g613
g6
sssS'378'
p618
(dp619
Vplanet
p620
(dp621
Vpolitics
p622
g40
ssVcreature
p623
(dp624
g622
g9
sssS'371'
p625
(dp626
Vtake
p627
(dp628
Vpolitics
p629
g9
sssS'370'
p630
(dp631
VRevolution
p632
(dp633
Vpolitics
p634
g6
ssVFather
p635
(dp636
g634
g9
sssS'373'
p637
(dp638
sS'372'
p639
(dp640
sS'375'
p641
(dp642
sS'374'
p643
(dp644
Vweek
p645
(dp646
Vpolitics
p647
g40
ssVBeer
p648
(dp649
g647
g9
ssVday
p650
(dp651
g647
g9
ssVtastes
p652
(dp653
g647
g9
sssS'377'
p654
(dp655
Vlions
p656
(dp657
Vpolitics
p658
g40
sssS'376'
p659
(dp660
Vimpetus
p661
(dp662
Vpolitics
p663
g40
ssVdrive
p664
(dp665
g663
g40
sssS'393'
p666
(dp667
sS'392'
p668
(dp669
Vsoul
p670
(dp671
Vpolitics
p672
g6
ssVfamily
p673
(dp674
g672
g6
sssS'88'
p675
(dp676
VIndia
p677
(dp678
Vpolitics
p679
g6
ssVharmony
p680
(dp681
g679
g9
sssS'89'
p682
(dp683
Vpersonality
p684
(dp685
Vpolitics
p686
g6
sssS'82'
p687
(dp688
sS'181'
p689
(dp690
Voccasion
p691
(dp692
Vpolitics
p693
g6
ssVbirth
p694
(dp695
g693
g6
sssS'80'
p696
(dp697
sS'81'
p698
(dp699
Vpurchases
p700
(dp701
Vpolitics
p702
g6
sssS'86'
p703
(dp704
Vplayer
p705
(dp706
Vpolitics
p707
g6
ssVfigure
p708
(dp709
g707
g6
sssS'87'
p710
(dp711
Vpassion
p712
(dp713
Vpolitics
p714
g9
ssVstepped
p715
(dp716
g714
g9
ssVcall
p717
(dp718
g714
g6
ssVhe
p719
(dp720
g714
g9
sssS'84'
p721
(dp722
g586
(dp723
Vpolitics
p724
g9
ssVm
p725
(dp726
g724
g40
sssS'85'
p727
(dp728
sS'7'
p729
(dp730
VBlind
p731
(dp732
Vpolitics
p733
g9
ssVnot
p734
(dp735
g733
g9
sssS'245'
p736
(dp737
VBharat
p738
(dp739
Vpolitics
p740
g9
sssS'244'
p741
(dp742
sS'247'
p743
(dp744
Vimportance
p745
(dp746
Vpolitics
p747
g6
ssVnation
p748
(dp749
g747
g6
ssVresearch
p750
(dp751
g747
g9
sssS'246'
p752
(dp753
sS'241'
p754
(dp755
Vgift
p756
(dp757
Vpolitics
p758
g40
sssS'240'
p759
(dp760
sS'243'
p761
(dp762
Vcharge
p763
(dp764
Vpolitics
p765
g40
ssVDengue
p766
(dp767
g765
g9
ssVt
p768
(dp769
g765
g40
sssS'242'
p770
(dp771
Vthing
p772
(dp773
Vpolitics
p774
g40
ssVFamily
p775
(dp776
g774
g9
sssS'249'
p777
(dp778
Vprosperity
p779
(dp780
Vpolitics
p781
g6
ssVamp
p782
(dp783
g781
g9
sssS'248'
p784
(dp785
VMuseums
p786
(dp787
Vpolitics
p788
g9
ssVmeans
p789
(dp790
g788
g40
sssS'179'
p791
(dp792
sS'178'
p793
(dp794
Vparts
p795
(dp796
Vpolitics
p797
g40
sssS'177'
p798
(dp799
Vlot
p800
(dp801
Vpolitics
p802
g6
sssS'176'
p803
(dp804
sS'175'
p805
(dp806
Vacted
p807
(dp808
Vpolitics
p809
g9
ssVHe
p810
(dp811
g809
g9
sssS'174'
p812
(dp813
Vhearts
p814
(dp815
Vpolitics
p816
g40
sssS'173'
p817
(dp818
Vbattle
p819
(dp820
Vpolitics
p821
g9
sssS'172'
p822
(dp823
sS'171'
p824
(dp825
sS'170'
p826
(dp827
Vcustomer
p828
(dp829
Vpolitics
p830
g9
ssVroaches
p831
(dp832
g830
g9
sssS'182'
p833
(dp834
sS'183'
p835
(dp836
Vsets
p837
(dp838
Vpolitics
p839
g9
sssS'180'
p840
(dp841
sS'2'
p842
(dp843
Vroles
p844
(dp845
Vpolitics
p846
g6
sssS'186'
p847
(dp848
sS'187'
p849
(dp850
sS'184'
p851
(dp852
Vremain
p853
(dp854
Vpolitics
p855
g9
sssS'185'
p856
(dp857
sS'188'
p858
(dp859
Vact
p860
(dp861
Vpolitics
p862
g6
sssS'189'
p863
(dp864
sS'11'
p865
(dp866
VIndians
p867
(dp868
Vpolitics
p869
g40
sssS'10'
p870
(dp871
sS'13'
p872
(dp873
Vloss
p874
(dp875
Vpolitics
p876
g6
ssVlife
p877
(dp878
g876
g6
sssS'12'
p879
(dp880
Vnature
p881
(dp882
Vpolitics
p883
g9
sssS'15'
p884
(dp885
sS'14'
p886
(dp887
sS'17'
p888
(dp889
Vfailure
p890
(dp891
Vpolitics
p892
g40
sssS'16'
p893
(dp894
Vlife
p895
(dp896
Vpolitics
p897
g6
sssS'19'
p898
(dp899
sS'18'
p900
(dp901
Vsuits
p902
(dp903
Vpolitics
p904
g6
sssS'62'
p905
(dp906
Vway
p907
(dp908
Vpolitics
p909
g40
ssVsaxophonist
p910
(dp911
g909
g40
sssS'322'
p912
(dp913
sS'323'
p914
(dp915
Vbirthday
p916
(dp917
Vpolitics
p918
g6
sssS'320'
p919
(dp920
Vfriend
p921
(dp922
Vpolitics
p923
g9
sssS'321'
p924
(dp925
Vnovelist
p926
(dp927
Vpolitics
p928
g6
ssVwho
p929
(dp930
g928
g9
sssS'326'
p931
(dp932
Vfilmmaker
p933
(dp934
Vpolitics
p935
g6
sssS'327'
p936
(dp937
sS'324'
p938
(dp939
Vday
p940
(dp941
Vpolitics
p942
g6
sssS'325'
p943
(dp944
sS'328'
p945
(dp946
Vmovies
p947
(dp948
Vpolitics
p949
g9
sssS'329'
p950
(dp951
Vday
p952
(dp953
Vpolitics
p954
g6
sssS'201'
p955
(dp956
Vmartyrs
p957
(dp958
Vpolitics
p959
g40
ssVmassacre
p960
(dp961
g959
g40
sssS'200'
p962
(dp963
sS'203'
p964
(dp965
Vwoman
p966
(dp967
Vpolitics
p968
g40
sssS'202'
p969
(dp970
Vremain
p971
(dp972
Vpolitics
p973
g9
sssS'205'
p974
(dp975
Vbirthday
p976
(dp977
Vpolitics
p978
g40
sssS'204'
p979
(dp980
sS'207'
p981
(dp982
Vobservance
p983
(dp984
Vpolitics
p985
g9
ssVDay
p986
(dp987
g985
g6
sssS'206'
p988
(dp989
Vmoment
p990
(dp991
Vpolitics
p992
g40
ssVawards
p993
(dp994
g992
g40
ssVIt
p995
(dp996
g992
g9
sssS'209'
p997
(dp998
Vbridges
p999
(dp1000
Vpolitics
p1001
g40
ssVBooks
p1002
(dp1003
g1001
g9
ssVmeans
p1004
(dp1005
g1001
g9
sssS'208'
p1006
(dp1007
sS'77'
p1008
(dp1009
Vcoaching
p1010
(dp1011
Vpolitics
p1012
g6
sssS'76'
p1013
(dp1014
Vbusinessman
p1015
(dp1016
Vpolitics
p1017
g9
ssVwork
p1018
(dp1019
g1017
g9
sssS'75'
p1020
(dp1021
sS'74'
p1022
(dp1023
Vimagination
p1024
(dp1025
Vpolitics
p1026
g6
ssVhand
p1027
(dp1028
g1026
g6
sssS'73'
p1029
(dp1030
Vname
p1031
(dp1032
Vpolitics
p1033
g6
ssVHe
p1034
(dp1035
g1033
g9
sssS'72'
p1036
(dp1037
Vcommentator
p1038
(dp1039
Vpolitics
p1040
g9
sssS'71'
p1041
(dp1042
Vmusician
p1043
(dp1044
Vpolitics
p1045
g9
sssS'70'
p1046
(dp1047
Vfear
p1048
(dp1049
Vpolitics
p1050
g6
sssS'79'
p1051
(dp1052
VIndustry
p1053
(dp1054
Vpolitics
p1055
g9
sssS'78'
p1056
(dp1057
sS'8'
p1058
(dp1059
sS'120'
p1060
(dp1061
sS'121'
p1062
(dp1063
sS'122'
p1064
(dp1065
Vworlds
p1066
(dp1067
Vpolitics
p1068
g6
sssS'123'
p1069
(dp1070
sS'124'
p1071
(dp1072
sS'125'
p1073
(dp1074
Vamp
p1075
(dp1076
Vpolitics
p1077
g40
ssVpapers
p1078
(dp1079
g1077
g9
sssS'126'
p1080
(dp1081
Vplayer
p1082
(dp1083
Vpolitics
p1084
g6
ssVawesome
p1085
(dp1086
g1084
g9
ssVrole
p1087
(dp1088
g1084
g6
ssVreigning
p1089
(dp1090
g1084
g9
sssS'127'
p1091
(dp1092
Vperformer
p1093
(dp1094
Vpolitics
p1095
g6
ssVmeters
p1096
(dp1097
g1095
g9
ssVevents
p1098
(dp1099
g1095
g9
sssS'128'
p1100
(dp1101
Vboundaries
p1102
(dp1103
Vpolitics
p1104
g6
sssS'129'
p1105
(dp1106
sS'319'
p1107
(dp1108
VReturns
p1109
(dp1110
Vpolitics
p1111
g9
ssVwishes
p1112
(dp1113
g1111
g9
sssS'318'
p1114
(dp1115
Vcricket
p1116
(dp1117
Vpolitics
p1118
g9
sssS'313'
p1119
(dp1120
Vpersonality
p1121
(dp1122
Vpolitics
p1123
g6
sssS'312'
p1124
(dp1125
Vexperiences
p1126
(dp1127
Vpolitics
p1128
g6
sssS'311'
p1129
(dp1130
sS'310'
p1131
(dp1132
sS'317'
p1133
(dp1134
Vlegend
p1135
(dp1136
Vpolitics
p1137
g9
sssS'316'
p1138
(dp1139
sS'315'
p1140
(dp1141
Vwishes
p1142
(dp1143
Vpolitics
p1144
g9
sssS'314'
p1145
(dp1146
sS'3'
p1147
(dp1148
Vrace
p1149
(dp1150
Vpolitics
p1151
g9
ssVbuffalo
p1152
(dp1153
g1151
g9
sssS'368'
p1154
(dp1155
sS'369'
p1156
(dp1157
sS'366'
p1158
(dp1159
sS'367'
p1160
(dp1161
sS'364'
p1162
(dp1163
sS'365'
p1164
(dp1165
sS'362'
p1166
(dp1167
Vtreatment
p1168
(dp1169
Vpolitics
p1170
g9
sssS'363'
p1171
(dp1172
sS'360'
p1173
(dp1174
Vtributes
p1175
(dp1176
Vpolitics
p1177
g6
ssVus
p1178
(dp1179
g1177
g9
ssVinspiration
p1180
(dp1181
g1177
g9
sssS'361'
p1182
(dp1183
sS'380'
p1184
(dp1185
sS'381'
p1186
(dp1187
sS'382'
p1188
(dp1189
Vanniversary
p1190
(dp1191
Vpolitics
p1192
g9
sssS'383'
p1193
(dp1194
sS'384'
p1195
(dp1196
Vyouth
p1197
(dp1198
Vpolitics
p1199
g9
ssVPresident
p1200
(dp1201
g1199
g6
ssVWriter
p1202
(dp1203
g1199
g9
ssVChairman
p1204
(dp1205
g1199
g9
sssS'385'
p1206
(dp1207
Vservices
p1208
(dp1209
Vpolitics
p1210
g40
ssVworkers
p1211
(dp1212
g1210
g9
ssVlives
p1213
(dp1214
g1210
g40
sssS'386'
p1215
(dp1216
Vmosquitos
p1217
(dp1218
Vpolitics
p1219
g9
sssS'387'
p1220
(dp1221
sS'388'
p1222
(dp1223
Vways
p1224
(dp1225
Vpolitics
p1226
g6
sssS'389'
p1227
(dp1228
sS'60'
p1229
(dp1230
sS'61'
p1231
(dp1232
Vgame
p1233
(dp1234
Vpolitics
p1235
g6
ssVNobody
p1236
(dp1237
g1235
g9
sssS'258'
p1238
(dp1239
Vfamily
p1240
(dp1241
Vpolitics
p1242
g6
sssS'259'
p1243
(dp1244
sS'64'
p1245
(dp1246
Vmusician
p1247
(dp1248
Vpolitics
p1249
g40
sssS'65'
p1250
(dp1251
VMinister
p1252
(dp1253
Vpolitics
p1254
g6
sssS'66'
p1255
(dp1256
Vtold
p1257
(dp1258
Vpolitics
p1259
g9
sssS'67'
p1260
(dp1261
g586
(dp1262
Vpolitics
p1263
g9
ssVreceived
p1264
(dp1265
g1263
g9
ssVeducation
p1266
(dp1267
g1263
g6
sssS'68'
p1268
(dp1269
Vscientist
p1270
(dp1271
Vpolitics
p1272
g6
sssS'69'
p1273
(dp1274
Vsinger
p1275
(dp1276
Vpolitics
p1277
g6
sssS'250'
p1278
(dp1279
VLife
p1280
(dp1281
Vpolitics
p1282
g9
ssVfragile
p1283
(dp1284
g1282
g9
sssS'251'
p1285
(dp1286
VCondolences
p1287
(dp1288
Vpolitics
p1289
g9
ssVmost
p1290
(dp1291
g1289
g9
ssVCharm
p1292
(dp1293
g1289
g9
ssVlot
p1294
(dp1295
g1289
g6
ssVconnected
p1296
(dp1297
g1289
g9
ssVcelebration
p1298
(dp1299
g1289
g6
sssS'256'
p1300
(dp1301
sS'257'
p1302
(dp1303
sS'254'
p1304
(dp1305
Voperations
p1306
(dp1307
Vpolitics
p1308
g9
ssVpersonnel
p1309
(dp1310
g1308
g9
ssVState
p1311
(dp1312
g1308
g9
ssVDestination
p1313
(dp1314
g1308
g9
ssVKarnataka
p1315
(dp1316
g1308
g9
sssS'255'
p1317
(dp1318
sS'168'
p1319
(dp1320
sS'169'
p1321
(dp1322
sS'164'
p1323
(dp1324
sS'165'
p1325
(dp1326
sS'166'
p1327
(dp1328
Vactor
p1329
(dp1330
Vpolitics
p1331
g6
sssS'167'
p1332
(dp1333
sS'160'
p1334
(dp1335
VLit
p1336
(dp1337
Vpolitics
p1338
g9
sssS'161'
p1339
(dp1340
Vtalents
p1341
(dp1342
Vpolitics
p1343
g6
ssVwriters
p1344
(dp1345
g1343
g6
sssS'162'
p1346
(dp1347
Vgame
p1348
(dp1349
Vpolitics
p1350
g40
sssS'163'
p1351
(dp1352
sS'9'
p1353
(dp1354
Vcontemplate
p1355
(dp1356
Vpolitics
p1357
g9
sssS'357'
p1358
(dp1359
Vsouls
p1360
(dp1361
Vpolitics
p1362
g6
sssS'356'
p1363
(dp1364
sS'355'
p1365
(dp1366
sS'354'
p1367
(dp1368
sS'353'
p1369
(dp1370
sS'352'
p1371
(dp1372
Vdates
p1373
(dp1374
Vpolitics
p1375
g9
sssS'351'
p1376
(dp1377
VPresident
p1378
(dp1379
Vpolitics
p1380
g40
ssVIndia
p1381
(dp1382
g1380
g9
sssS'350'
p1383
(dp1384
VRevolution
p1385
(dp1386
Vpolitics
p1387
g40
sssS'359'
p1388
(dp1389
sS'358'
p1390
(dp1391
Vscientist
p1392
(dp1393
Vpolitics
p1394
g6
ssVdemise
p1395
(dp1396
g1394
g6
sssS'216'
p1397
(dp1398
sS'217'
p1399
(dp1400
Vexperiments
p1401
(dp1402
Vpolitics
p1403
g9
ssVastronomy
p1404
(dp1405
g1403
g40
sssS'214'
p1406
(dp1407
sS'215'
p1408
(dp1409
Vrecovery
p1410
(dp1411
Vpolitics
p1412
g6
sssS'212'
p1413
(dp1414
VThere
p1415
(dp1416
Vpolitics
p1417
g9
sssS'213'
p1418
(dp1419
Vcategory
p1420
(dp1421
Vpolitics
p1422
g6
sssS'210'
p1423
(dp1424
Vcakewalk
p1425
(dp1426
Vpolitics
p1427
g40
sssS'211'
p1428
(dp1429
VSafe
p1430
(dp1431
Vpolitics
p1432
g40
sssS'218'
p1433
(dp1434
VMay
p1435
(dp1436
Vpolitics
p1437
g9
ssVGaming
p1438
(dp1439
g1437
g6
sssS'219'
p1440
(dp1441
Vboost
p1442
(dp1443
Vpolitics
p1444
g9
ssVStartups
p1445
(dp1446
g1444
g6
ssVIndia
p1447
(dp1448
g1444
g9
sssS'289'
p1449
(dp1450
Vwelcome
p1451
(dp1452
Vpolitics
p1453
g9
sssS'288'
p1454
(dp1455
Vyear
p1456
(dp1457
Vpolitics
p1458
g6
sssS'4'
p1459
(dp1460
Vgirl
p1461
(dp1462
Vpolitics
p1463
g6
ssVwhole
p1464
(dp1465
g1463
g9
sssS'281'
p1466
(dp1467
Vtype
p1468
(dp1469
Vpolitics
p1470
g40
ssVpeople
p1471
(dp1472
g1470
g40
sssS'280'
p1473
(dp1474
sS'283'
p1475
(dp1476
VDentist
p1477
(dp1478
Vpolitics
p1479
g9
sssS'282'
p1480
(dp1481
Vwish
p1482
(dp1483
Vpolitics
p1484
g9
sssS'285'
p1485
(dp1486
Vcandidates
p1487
(dp1488
Vpolitics
p1489
g40
sssS'284'
p1490
(dp1491
Vactor
p1492
(dp1493
Vpolitics
p1494
g6
sssS'287'
p1495
(dp1496
sS'286'
p1497
(dp1498
sS'263'
p1499
(dp1500
Vwho
p1501
(dp1502
Vpolitics
p1503
g9
ssVvictims
p1504
(dp1505
g1503
g40
sssS'262'
p1506
(dp1507
sS'261'
p1508
(dp1509
sS'260'
p1510
(dp1511
VLIFE
p1512
(dp1513
Vpolitics
p1514
g9
ssVreason
p1515
(dp1516
g1514
g9
sssS'267'
p1517
(dp1518
sS'266'
p1519
(dp1520
Vwin
p1521
(dp1522
Vpolitics
p1523
g9
ssVstraight
p1524
(dp1525
g1523
g9
sssS'265'
p1526
(dp1527
sS'264'
p1528
(dp1529
sS'269'
p1530
(dp1531
Vresponsibility
p1532
(dp1533
Vpolitics
p1534
g6
sssS'268'
p1535
(dp1536
Vhome
p1537
(dp1538
Vpolitics
p1539
g9
sssS'59'
p1540
(dp1541
Vplayer
p1542
(dp1543
Vpolitics
p1544
g6
sssS'58'
p1545
(dp1546
Vbridge
p1547
(dp1548
Vpolitics
p1549
g40
sssS'55'
p1550
(dp1551
sS'54'
p1552
(dp1553
Vsuccess
p1554
(dp1555
Vpolitics
p1556
g6
sssS'57'
p1557
(dp1558
Vsolver
p1559
(dp1560
Vpolitics
p1561
g9
sssS'56'
p1562
(dp1563
sS'51'
p1564
(dp1565
sS'50'
p1566
(dp1567
sS'53'
p1568
(dp1569
Vduty
p1570
(dp1571
Vpolitics
p1572
g6
sssS'52'
p1573
(dp1574
Vsociety
p1575
(dp1576
Vpolitics
p1577
g6
sssS'63'
p1578
(dp1579
Vfilm
p1580
(dp1581
Vpolitics
p1582
g6
sssS'115'
p1583
(dp1584
VBritain
p1585
(dp1586
Vpolitics
p1587
g9
ssVaward
p1588
(dp1589
g1587
g9
ssVwonder
p1590
(dp1591
g1587
g6
sssS'252'
p1592
(dp1593
sS'117'
p1594
(dp1595
VConservation
p1596
(dp1597
Vpolitics
p1598
g9
ssVcontributions
p1599
(dp1600
g1598
g9
sssS'116'
p1601
(dp1602
sS'111'
p1603
(dp1604
Vcinema
p1605
(dp1606
Vpolitics
p1607
g6
sssS'110'
p1608
(dp1609
Vopportunity
p1610
(dp1611
Vpolitics
p1612
g9
sssS'113'
p1613
(dp1614
Vtea
p1615
(dp1616
Vpolitics
p1617
g6
sssS'253'
p1618
(dp1619
Vwho
p1620
(dp1621
Vpolitics
p1622
g9
ssVyoung
p1623
(dp1624
g1622
g9
sssS'119'
p1625
(dp1626
sS'118'
p1627
(dp1628
Vwoman
p1629
(dp1630
Vpolitics
p1631
g6
ssVleader
p1632
(dp1633
g1631
g6
sssS'308'
p1634
(dp1635
sS'309'
p1636
(dp1637
sS'300'
p1638
(dp1639
Vus
p1640
(dp1641
Vpolitics
p1642
g9
ssVsocial
p1643
(dp1644
g1642
g9
sssS'301'
p1645
(dp1646
Vincarnations
p1647
(dp1648
Vpolitics
p1649
g6
sssS'302'
p1650
(dp1651
Vmankind
p1652
(dp1653
Vpolitics
p1654
g9
ssVservice
p1655
(dp1656
g1654
g6
ssVdoctors
p1657
(dp1658
g1654
g9
sssS'303'
p1659
(dp1660
sS'304'
p1661
(dp1662
sS'305'
p1663
(dp1664
VCountry
p1665
(dp1666
Vpolitics
p1667
g9
ssVIndia
p1668
(dp1669
g1667
g9
sssS'306'
p1670
(dp1671
Vjokes
p1672
(dp1673
Vpolitics
p1674
g9
ssVr
p1675
(dp1676
g1674
g6
sssS'307'
p1677
(dp1678
Vactor
p1679
(dp1680
Vpolitics
p1681
g6
sssS'229'
p1682
(dp1683
sS'228'
p1684
(dp1685
sS'227'
p1686
(dp1687
sS'226'
p1688
(dp1689
sS'225'
p1690
(dp1691
sS'224'
p1692
(dp1693
Vu
p1694
(dp1695
Vpolitics
p1696
g9
ssVhappiness
p1697
(dp1698
g1696
g9
sssS'223'
p1699
(dp1700
Vreturns
p1701
(dp1702
Vpolitics
p1703
g40
ssg1694
(dp1704
g1703
g9
sssS'222'
p1705
(dp1706
Vlives
p1707
(dp1708
Vpolitics
p1709
g9
sssS'221'
p1710
(dp1711
VA
p1712
(dp1713
Vpolitics
p1714
g40
ssVman
p1715
(dp1716
g1714
g40
sssS'220'
p1717
(dp1718
sS'114'
p1719
(dp1720
Vby-product
p1721
(dp1722
Vpolitics
p1723
g9
sssS'391'
p1724
(dp1725
sS'390'
p1726
(dp1727
Vsports
p1728
(dp1729
Vpolitics
p1730
g6
sssS'151'
p1731
(dp1732
sS'150'
p1733
(dp1734
Vday
p1735
(dp1736
Vpolitics
p1737
g40
ssVmartyrdom
p1738
(dp1739
g1737
g40
sssS'153'
p1740
(dp1741
Vcome
p1742
(dp1743
Vpolitics
p1744
g9
sssS'152'
p1745
(dp1746
Vlove
p1747
(dp1748
Vpolitics
p1749
g6
ssVcheer
p1750
(dp1751
g1749
g6
ssVsunshine
p1752
(dp1753
g1749
g9
ssVlaughter
p1754
(dp1755
g1749
g9
ssVwarmth
p1756
(dp1757
g1749
g6
sssS'155'
p1758
(dp1759
sS'154'
p1760
(dp1761
sS'157'
p1762
(dp1763
VMarch
p1764
(dp1765
Vpolitics
p1766
g40
sssS'156'
p1767
(dp1768
Vawards
p1769
(dp1770
Vpolitics
p1771
g6
sssS'159'
p1772
(dp1773
Vage
p1774
(dp1775
Vpolitics
p1776
g40
sssS'158'
p1777
(dp1778
sS'112'
p1779
(dp1780
sS'83'
p1781
(dp1782
Vfather
p1783
(dp1784
Vpolitics
p1785
g6
sssS'48'
p1786
(dp1787
sS'49'
p1788
(dp1789
Vthing
p1790
(dp1791
Vpolitics
p1792
g40
ssVVishnu
p1793
(dp1794
g1792
g9
sssS'46'
p1795
(dp1796
Vtheater
p1797
(dp1798
Vpolitics
p1799
g40
ssVroots
p1800
(dp1801
g1799
g40
sssS'47'
p1802
(dp1803
Vlimitations
p1804
(dp1805
Vpolitics
p1806
g40
ssVtour
p1807
(dp1808
g1806
g40
sssS'44'
p1809
(dp1810
sS'45'
p1811
(dp1812
sS'42'
p1813
(dp1814
Vsociety
p1815
(dp1816
Vpolitics
p1817
g6
ssVhealth
p1818
(dp1819
g1817
g6
sssS'43'
p1820
(dp1821
g586
(dp1822
Vpolitics
p1823
g9
ssVworried
p1824
(dp1825
g1823
g9
sssS'40'
p1826
(dp1827
sS'41'
p1828
(dp1829
sS'5'
p1830
(dp1831
Vcontribution
p1832
(dp1833
Vpolitics
p1834
g6
ssVmusic
p1835
(dp1836
g1834
g6
ssVSoul
p1837
(dp1838
g1834
g9
sss.