(dp0
S'344'
p1
(dp2
Vamp
p3
(dp4
Vfood
p5
S'positive'
p6
ssVability
p7
(dp8
g5
S'neutral'
p9
ssVoccasion
p10
(dp11
g5
g6
sVservice
p12
g6
sssS'0'
p13
(dp14
Vchieftain
p15
(dp16
Vservice
p17
g9
ssVleader
p18
(dp19
g17
g9
sssS'346'
p20
(dp21
VBirthday
p22
(dp23
Vfood
p24
g9
sssS'347'
p25
(dp26
Vcome
p27
(dp28
Vfood
p29
g9
sVatmosphere
p30
g9
ssVdreams
p31
(dp32
g30
g9
sssS'340'
p33
(dp34
Vpast
p35
(dp36
Vatmosphere
p37
g9
ssVmoves
p38
(dp39
g37
g9
sVserve
p40
g9
ssVtitles
p41
(dp42
Vfood
p43
S'negative'
p44
sg37
g44
sg40
g44
ssVsystem
p45
(dp46
g43
g9
sg37
g9
sg40
g9
ssVchampion
p47
(dp48
g43
g6
sg37
g6
sg40
g6
sVservice
p49
g6
sssS'341'
p50
(dp51
Vawards
p52
(dp53
Vprice
p54
g6
sssS'342'
p55
(dp56
Vamp
p57
(dp58
Vfood
p59
g6
sVservice
p60
g6
ssVicons
p61
(dp62
g60
g9
sssS'343'
p63
(dp64
sS'348'
p65
(dp66
sS'349'
p67
(dp68
Vactions
p69
(dp70
Vservice
p71
g9
sssS'298'
p72
(dp73
Vhealth
p74
(dp75
Vatmosphere
p76
g6
sssS'299'
p77
(dp78
VLife
p79
(dp80
Vfood
p81
g9
sssS'296'
p82
(dp83
Vsatellite
p84
(dp85
Vservice
p86
g44
ssVsearch
p87
(dp88
g86
g9
ssVrelay
p89
(dp90
g86
g6
ssVlaunch
p91
(dp92
g86
g44
sssS'297'
p93
(dp94
VBirthday
p95
(dp96
Vfood
p97
g9
sssS'294'
p98
(dp99
VRecord
p100
(dp101
Vservice
p102
g9
sssS'295'
p103
(dp104
sS'292'
p105
(dp106
Vlight
p107
(dp108
Vfood
p109
g9
sVatmosphere
p110
g9
sVservice
p111
g9
ssVMusic
p112
(dp113
g109
g9
sg111
g9
ssVlanguage
p114
(dp115
g109
g6
sssS'293'
p116
(dp117
sS'290'
p118
(dp119
Vrevolution
p120
(dp121
Vservice
p122
g6
sssS'291'
p123
(dp124
Vstarred
p125
(dp126
Vprice
p127
g9
sVmilitary_service
p128
g9
ssVwho
p129
(dp130
g128
g9
sssS'199'
p131
(dp132
Vvoid
p133
(dp134
Vatmosphere
p135
g6
sssS'198'
p136
(dp137
sS'195'
p138
(dp139
VIndia
p140
(dp141
Vserve
p142
g9
sVambiance
p143
g9
ssVJuly
p144
(dp145
Vfood
p146
g44
sg142
g44
sg143
g44
ssVMarch
p147
(dp148
g142
g9
sssS'194'
p149
(dp150
Vteachings
p151
(dp152
Vservice
p153
g9
ssVpeace
p154
(dp155
Vatmosphere
p156
g6
sg153
g6
ssVthreat
p157
(dp158
g153
g9
sssS'197'
p159
(dp160
sS'196'
p161
(dp162
Voldest
p163
(dp164
Vfood
p165
g9
sVservice
p166
g9
ssVMinister
p167
(dp168
g166
g9
ssVhe
p169
(dp170
g165
g9
sg166
g9
sssS'191'
p171
(dp172
VJourney
p173
(dp174
Vserve
p175
g6
sssS'190'
p176
(dp177
VTributes
p178
(dp179
Vprice
p180
g6
sVservice
p181
g6
ssVwealth
p182
(dp183
g180
g6
sVatmosphere
p184
g6
sg181
g6
ssVgift
p185
(dp186
g180
g6
sssS'193'
p187
(dp188
sS'192'
p189
(dp190
sS'270'
p191
(dp192
Vplantation
p193
(dp194
Vfood
p195
g9
sVserve
p196
g9
sVambiance
p197
g9
ssVbirthday
p198
(dp199
g195
g6
ssVdrive
p200
(dp201
g195
g9
sg196
g9
sssS'271'
p202
(dp203
Vsuccess
p204
(dp205
Vservice
p206
g6
ssVendeavours
p207
(dp208
g206
g44
sssS'272'
p209
(dp210
Vmake
p211
(dp212
Vfood
p213
g9
sssS'273'
p214
(dp215
Vwriters
p216
(dp217
Vprice
p218
g9
sVservice
p219
g9
ssVAward
p220
(dp221
g218
g6
sssS'274'
p222
(dp223
sS'275'
p224
(dp225
sS'276'
p226
(dp227
Vlove
p228
(dp229
Vservicing
p230
g6
sssS'277'
p231
(dp232
sS'278'
p233
(dp234
sS'279'
p235
(dp236
sS'108'
p237
(dp238
sS'109'
p239
(dp240
Vacumen
p241
(dp242
Vfood
p243
g44
sVmilitary_service
p244
g44
ssVIndustry
p245
(dp246
g244
g9
sssS'102'
p247
(dp248
sS'103'
p249
(dp250
VFighter
p251
(dp252
Vambiance
p253
g9
sVservice
p254
g9
ssVtheme
p255
(dp256
Vfood
p257
g6
sg253
g6
sg254
g6
ssVIndia
p258
(dp259
g253
g9
ssVScience
p260
(dp261
g257
g6
sg253
g6
sg254
g6
sssS'100'
p262
(dp263
Vrunner
p264
(dp265
Vservice
p266
g9
sssS'101'
p267
(dp268
Vamp
p269
(dp270
Vfood
p271
g6
sssS'106'
p272
(dp273
Vamp
p274
(dp275
Vfood
p276
g9
sVatmosphere
p277
g9
ssVage
p278
(dp279
g277
g6
ssVbrand
p280
(dp281
g276
g6
sg277
g6
sssS'107'
p282
(dp283
sS'104'
p284
(dp285
sS'105'
p286
(dp287
VAwards
p288
(dp289
Vprice
p290
g9
ssVAward
p291
(dp292
g290
g9
ssVteams
p293
(dp294
g290
g6
sVmilitary_service
p295
g6
sssS'39'
p296
(dp297
sS'38'
p298
(dp299
Vlook
p300
(dp301
Vatmosphere
p302
g9
ssVare
p303
(dp304
g302
g9
sVprice
p305
g9
sssS'33'
p306
(dp307
sS'32'
p308
(dp309
VDevi
p310
(dp311
Vfood
p312
g9
ssVprodigy
p313
(dp314
g312
g44
sssS'31'
p315
(dp316
Vsinger
p317
(dp318
Vprice
p319
g6
sssS'30'
p320
(dp321
VLabour
p322
(dp323
Vservice
p324
g9
ssVsustainer
p325
(dp326
g324
g44
sssS'37'
p327
(dp328
Vvirtue
p329
(dp330
Vprice
p331
g6
sssS'36'
p332
(dp333
sS'35'
p334
(dp335
sS'34'
p336
(dp337
Vhome
p338
(dp339
Vmilitary_service
p340
g6
sVservice
p341
g6
ssVwork
p342
(dp343
g341
g44
sssS'339'
p344
(dp345
sS'338'
p346
(dp347
sS'335'
p348
(dp349
sS'334'
p350
(dp351
sS'337'
p352
(dp353
sS'336'
p354
(dp355
sS'331'
p356
(dp357
sS'330'
p358
(dp359
Vattack
p360
(dp361
Vservice
p362
g9
ssVfamilies
p363
(dp364
Vmilitary_service
p365
g9
sg362
g9
sssS'333'
p366
(dp367
Vhome
p368
(dp369
Vmilitary_service
p370
g6
sssS'332'
p371
(dp372
Vkingship
p373
(dp374
Vatmosphere
p375
g6
sssS'345'
p376
(dp377
sS'6'
p378
(dp379
Vspot
p380
(dp381
Vservice
p382
g9
sssS'99'
p383
(dp384
Vwinner
p385
(dp386
Vservice
p387
g6
sssS'98'
p388
(dp389
VMedal
p390
(dp391
Vfood
p392
g9
sVprice
p393
g9
sVservice
p394
g9
ssVgoal
p395
(dp396
g392
g6
sg394
g6
ssVdevotion
p397
(dp398
g394
g6
ssVN
p399
(dp400
g392
g6
sg394
g6
sssS'91'
p401
(dp402
sS'90'
p403
(dp404
VPlayer
p405
(dp406
Vprice
p407
g6
sssS'93'
p408
(dp409
sS'92'
p410
(dp411
Vwho
p412
(dp413
Vmilitary_service
p414
g9
sVservice
p415
g9
ssVactor
p416
(dp417
g415
g6
ssVworks
p418
(dp419
g414
g9
sg415
g9
sssS'95'
p420
(dp421
Vmake
p422
(dp423
Vfood
p424
g9
sssS'94'
p425
(dp426
VTest
p427
(dp428
Vservice
p429
g6
ssV200
p430
(dp431
Vfood
p432
g9
sg429
g9
ssVwriter
p433
(dp434
g429
g9
ssVpopular
p435
(dp436
g432
g9
sg429
g9
sssS'97'
p437
(dp438
VChallenges
p439
(dp440
Vservice
p441
g9
ssVpart
p442
(dp443
g441
g44
sssS'96'
p444
(dp445
sS'238'
p446
(dp447
Vbirthday
p448
(dp449
Vfood
p450
g6
sssS'239'
p451
(dp452
VPlanet
p453
(dp454
Vservice
p455
g9
ssVNews
p456
(dp457
Vfood
p458
g9
sVprice
p459
g9
sg455
g9
ssVBirthday
p460
(dp461
g458
g9
sg455
g9
ssVFuture
p462
(dp463
g455
g9
ssVworld
p464
(dp465
g458
g44
sg455
g44
sssS'234'
p466
(dp467
Vsafety
p468
(dp469
Vatmosphere
p470
g6
sssS'235'
p471
(dp472
sS'236'
p473
(dp474
sS'237'
p475
(dp476
Vworker
p477
(dp478
Vservice
p479
g6
ssVfounder
p480
(dp481
g479
g44
sssS'230'
p482
(dp483
Vamp
p484
(dp485
Vfood
p486
g6
ssVmatters
p487
(dp488
g486
g6
sssS'231'
p489
(dp490
sS'232'
p491
(dp492
sS'233'
p493
(dp494
Vworld
p495
(dp496
Vfood
p497
g44
sVservice
p498
g44
ssVsafe
p499
(dp500
g497
g9
sg498
g9
ssVknow
p501
(dp502
g497
g9
sVserve
p503
g9
sg498
g9
ssVerror
p504
(dp505
g497
g44
sssS'1'
p506
(dp507
sS'146'
p508
(dp509
Vlife
p510
(dp511
Vfood
p512
g9
sssS'147'
p513
(dp514
sS'144'
p515
(dp516
Vcommunities
p517
(dp518
Vambiance
p519
g44
ssVvalues
p520
(dp521
g519
g6
sVmonetary_value
p522
g6
ssVforests
p523
(dp524
g519
g9
sg522
g9
sssS'145'
p525
(dp526
sS'142'
p527
(dp528
sS'143'
p529
(dp530
Vmovements
p531
(dp532
Vservice
p533
g9
sssS'140'
p534
(dp535
sS'141'
p536
(dp537
sS'148'
p538
(dp539
sS'149'
p540
(dp541
Vlives
p542
(dp543
Vfood
p544
g9
sssS'133'
p545
(dp546
sS'132'
p547
(dp548
Vtime
p549
(dp550
Vatmosphere
p551
g9
sssS'131'
p552
(dp553
Vday
p554
(dp555
Vservice
p556
g6
sssS'130'
p557
(dp558
sS'137'
p559
(dp560
Vamp
p561
(dp562
Vfood
p563
g6
sssS'136'
p564
(dp565
Vinspiration
p566
(dp567
Vfood
p568
g6
sssS'135'
p569
(dp570
sS'134'
p571
(dp572
Vrelies
p573
(dp574
Vprice
p575
g9
sVmilitary_service
p576
g9
sVservice
p577
g9
ssVbowler
p578
(dp579
g577
g44
ssVwho
p580
(dp581
g576
g9
sg577
g9
sssS'139'
p582
(dp583
sS'138'
p584
(dp585
VSir
p586
(dp587
Vservice
p588
g9
sssS'24'
p589
(dp590
sS'25'
p591
(dp592
VMarshal
p593
(dp594
Vmilitary_service
p595
g9
sVservice
p596
g9
ssVrank
p597
(dp598
g595
g6
ssVofficers
p599
(dp600
g595
g44
sg596
g44
sssS'26'
p601
(dp602
Vcontribution
p603
(dp604
Vservice
p605
g44
ssVartist
p606
(dp607
g605
g6
sssS'27'
p608
(dp609
Vplayer
p610
(dp611
Vprice
p612
g9
ssVlaurels
p613
(dp614
g612
g9
sVatmosphere
p615
g9
sssS'20'
p616
(dp617
sS'21'
p618
(dp619
Vcome
p620
(dp621
Vfood
p622
g9
sssS'22'
p623
(dp624
VI
p625
(dp626
Vfood
p627
g9
ssVway
p628
(dp629
g627
g6
sVatmosphere
p630
g6
sVserve
p631
g6
ssVget
p632
(dp633
g627
g9
sg631
g9
sssS'23'
p634
(dp635
sS'28'
p636
(dp637
VRevolution
p638
(dp639
Vservice
p640
g9
ssVright
p641
(dp642
Vambiance
p643
g6
sg640
g6
sssS'29'
p644
(dp645
VFreedom
p646
(dp647
Vatmosphere
p648
g9
ssVright
p649
(dp650
g648
g6
sVambiance
p651
g6
sssS'379'
p652
(dp653
Vimportance
p654
(dp655
Vfood
p656
g6
sVmonetary_value
p657
g6
sVservice
p658
g6
ssVfuels
p659
(dp660
g656
g9
sg658
g9
ssVfuture
p661
(dp662
g658
g6
sssS'378'
p663
(dp664
Vplanet
p665
(dp666
Vservice
p667
g44
ssVcreature
p668
(dp669
g667
g9
sssS'371'
p670
(dp671
Vtake
p672
(dp673
Vservice
p674
g9
sssS'370'
p675
(dp676
VRevolution
p677
(dp678
Vservice
p679
g6
ssVFather
p680
(dp681
g679
g9
sssS'373'
p682
(dp683
sS'372'
p684
(dp685
sS'375'
p686
(dp687
sS'374'
p688
(dp689
Vweek
p690
(dp691
Vfood
p692
g44
sVservice
p693
g44
ssVBeer
p694
(dp695
g692
g9
sg693
g9
ssVday
p696
(dp697
g693
g9
ssVtastes
p698
(dp699
g692
g9
sg693
g9
sssS'377'
p700
(dp701
Vlions
p702
(dp703
Vservice
p704
g44
sssS'376'
p705
(dp706
Vimpetus
p707
(dp708
Vservice
p709
g44
ssVdrive
p710
(dp711
Vserve
p712
g44
sg709
g44
sssS'393'
p713
(dp714
sS'392'
p715
(dp716
Vsoul
p717
(dp718
Vservice
p719
g6
ssVfamily
p720
(dp721
Vmilitary_service
p722
g6
sg719
g6
sssS'88'
p723
(dp724
VIndia
p725
(dp726
Vatmosphere
p727
g6
sVambiance
p728
g6
ssVharmony
p729
(dp730
g727
g9
sssS'89'
p731
(dp732
Vpersonality
p733
(dp734
Vatmosphere
p735
g6
sssS'82'
p736
(dp737
sS'181'
p738
(dp739
Voccasion
p740
(dp741
Vservice
p742
g6
ssVbirth
p743
(dp744
g742
g6
sssS'80'
p745
(dp746
sS'81'
p747
(dp748
Vpurchases
p749
(dp750
Vprice
p751
g6
sssS'86'
p752
(dp753
Vplayer
p754
(dp755
Vprice
p756
g6
ssVfigure
p757
(dp758
g756
g6
sVserve
p759
g6
sssS'87'
p760
(dp761
Vpassion
p762
(dp763
Vfood
p764
g9
sVprice
p765
g9
sVservice
p766
g9
ssVstepped
p767
(dp768
g764
g9
sg765
g9
sg766
g9
ssVcall
p769
(dp770
g766
g6
ssVhe
p771
(dp772
g764
g9
sg766
g9
sssS'84'
p773
(dp774
g625
(dp775
Vfood
p776
g9
ssVm
p777
(dp778
g776
g44
sVatmosphere
p779
g44
sssS'85'
p780
(dp781
sS'7'
p782
(dp783
VBlind
p784
(dp785
Vservice
p786
g9
ssVnot
p787
(dp788
Vfood
p789
g9
sg786
g9
sssS'245'
p790
(dp791
VBharat
p792
(dp793
Vambiance
p794
g9
sssS'244'
p795
(dp796
sS'247'
p797
(dp798
Vimportance
p799
(dp800
Vmonetary_value
p801
g6
ssVnation
p802
(dp803
g801
g6
sVservice
p804
g6
sVmilitary_service
p805
g6
ssVresearch
p806
(dp807
g801
g9
sg804
g9
sssS'246'
p808
(dp809
sS'241'
p810
(dp811
Vgift
p812
(dp813
Vprice
p814
g44
sssS'240'
p815
(dp816
sS'243'
p817
(dp818
Vcharge
p819
(dp820
Vprice
p821
g44
ssVDengue
p822
(dp823
Vfood
p824
g9
sg821
g9
sVatmosphere
p825
g9
ssVt
p826
(dp827
g824
g44
sg821
g44
sssS'242'
p828
(dp829
Vthing
p830
(dp831
Vfood
p832
g44
sVmilitary_service
p833
g44
ssVFamily
p834
(dp835
g833
g9
sssS'249'
p836
(dp837
Vprosperity
p838
(dp839
Vatmosphere
p840
g6
ssVamp
p841
(dp842
Vfood
p843
g9
sg840
g9
sssS'248'
p844
(dp845
VMuseums
p846
(dp847
Vservice
p848
g9
ssVmeans
p849
(dp850
g848
g44
sssS'179'
p851
(dp852
sS'178'
p853
(dp854
Vparts
p855
(dp856
Vambiance
p857
g44
sssS'177'
p858
(dp859
Vlot
p860
(dp861
Vambiance
p862
g6
sssS'176'
p863
(dp864
sS'175'
p865
(dp866
Vacted
p867
(dp868
Vfood
p869
g9
sVprice
p870
g9
ssVHe
p871
(dp872
g869
g9
sssS'174'
p873
(dp874
Vhearts
p875
(dp876
Vfood
p877
g44
sssS'173'
p878
(dp879
Vbattle
p880
(dp881
Vservice
p882
g9
sssS'172'
p883
(dp884
sS'171'
p885
(dp886
sS'170'
p887
(dp888
Vcustomer
p889
(dp890
Vservice
p891
g9
ssVroaches
p892
(dp893
g891
g9
sssS'182'
p894
(dp895
sS'183'
p896
(dp897
Vsets
p898
(dp899
Vservice
p900
g9
sssS'180'
p901
(dp902
sS'2'
p903
(dp904
Vroles
p905
(dp906
Vservice
p907
g6
sssS'186'
p908
(dp909
sS'187'
p910
(dp911
sS'184'
p912
(dp913
Vremain
p914
(dp915
Vprice
p916
g9
sssS'185'
p917
(dp918
sS'188'
p919
(dp920
Vact
p921
(dp922
Vservice
p923
g6
sssS'189'
p924
(dp925
sS'11'
p926
(dp927
VIndians
p928
(dp929
Vservice
p930
g44
sssS'10'
p931
(dp932
sS'13'
p933
(dp934
Vloss
p935
(dp936
Vprice
p937
g6
ssVlife
p938
(dp939
Vfood
p940
g6
sg937
g6
sssS'12'
p941
(dp942
Vnature
p943
(dp944
Vprice
p945
g9
sssS'15'
p946
(dp947
sS'14'
p948
(dp949
sS'17'
p950
(dp951
Vfailure
p952
(dp953
Vatmosphere
p954
g44
sssS'16'
p955
(dp956
Vlife
p957
(dp958
Vfood
p959
g6
sssS'19'
p960
(dp961
sS'18'
p962
(dp963
Vsuits
p964
(dp965
Vservice
p966
g6
sssS'62'
p967
(dp968
Vway
p969
(dp970
Vatmosphere
p971
g44
ssVsaxophonist
p972
(dp973
g971
g44
sVprice
p974
g44
sssS'322'
p975
(dp976
sS'323'
p977
(dp978
Vbirthday
p979
(dp980
Vfood
p981
g6
sssS'320'
p982
(dp983
Vfriend
p984
(dp985
Vservice
p986
g9
sssS'321'
p987
(dp988
Vnovelist
p989
(dp990
Vmilitary_service
p991
g6
sVservice
p992
g6
ssVwho
p993
(dp994
g991
g9
sssS'326'
p995
(dp996
Vfilmmaker
p997
(dp998
Vservice
p999
g6
sssS'327'
p1000
(dp1001
sS'324'
p1002
(dp1003
Vday
p1004
(dp1005
Vservice
p1006
g6
sssS'325'
p1007
(dp1008
sS'328'
p1009
(dp1010
Vmovies
p1011
(dp1012
Vservice
p1013
g9
sssS'329'
p1014
(dp1015
Vday
p1016
(dp1017
Vservice
p1018
g6
sssS'201'
p1019
(dp1020
Vmartyrs
p1021
(dp1022
Voverhaul
p1023
g44
sVservice
p1024
g44
ssVmassacre
p1025
(dp1026
g1023
g44
sssS'200'
p1027
(dp1028
sS'203'
p1029
(dp1030
Vwoman
p1031
(dp1032
Vservice
p1033
g44
sssS'202'
p1034
(dp1035
Vremain
p1036
(dp1037
Vprice
p1038
g9
sssS'205'
p1039
(dp1040
Vbirthday
p1041
(dp1042
Vfood
p1043
g44
sssS'204'
p1044
(dp1045
sS'207'
p1046
(dp1047
Vobservance
p1048
(dp1049
Vservice
p1050
g9
ssVDay
p1051
(dp1052
g1050
g6
sssS'206'
p1053
(dp1054
Vmoment
p1055
(dp1056
Vfood
p1057
g44
sVprice
p1058
g44
sVmonetary_value
p1059
g44
ssVawards
p1060
(dp1061
g1058
g44
ssVIt
p1062
(dp1063
g1057
g9
sg1058
g9
sssS'209'
p1064
(dp1065
Vbridges
p1066
(dp1067
Vservice
p1068
g44
ssVBooks
p1069
(dp1070
g1068
g9
ssVmeans
p1071
(dp1072
g1068
g9
sssS'208'
p1073
(dp1074
sS'77'
p1075
(dp1076
Vcoaching
p1077
(dp1078
Vservice
p1079
g6
sssS'76'
p1080
(dp1081
Vbusinessman
p1082
(dp1083
Vservice
p1084
g9
ssVwork
p1085
(dp1086
g1084
g9
sssS'75'
p1087
(dp1088
sS'74'
p1089
(dp1090
Vimagination
p1091
(dp1092
Vfood
p1093
g6
sVservice
p1094
g6
ssVhand
p1095
(dp1096
g1094
g6
sssS'73'
p1097
(dp1098
Vname
p1099
(dp1100
Vfood
p1101
g6
sVservice
p1102
g6
ssVHe
p1103
(dp1104
g1101
g9
sssS'72'
p1105
(dp1106
Vcommentator
p1107
(dp1108
Vservice
p1109
g9
sssS'71'
p1110
(dp1111
Vmusician
p1112
(dp1113
Vprice
p1114
g9
sssS'70'
p1115
(dp1116
Vfear
p1117
(dp1118
Vatmosphere
p1119
g6
sssS'79'
p1120
(dp1121
VIndustry
p1122
(dp1123
Vmilitary_service
p1124
g9
sssS'78'
p1125
(dp1126
sS'8'
p1127
(dp1128
sS'120'
p1129
(dp1130
sS'121'
p1131
(dp1132
sS'122'
p1133
(dp1134
Vworlds
p1135
(dp1136
Vfood
p1137
g6
sssS'123'
p1138
(dp1139
sS'124'
p1140
(dp1141
sS'125'
p1142
(dp1143
Vamp
p1144
(dp1145
Vfood
p1146
g44
ssVpapers
p1147
(dp1148
g1146
g9
sVservice
p1149
g9
sssS'126'
p1150
(dp1151
Vplayer
p1152
(dp1153
Vprice
p1154
g6
sVservice
p1155
g6
ssVawesome
p1156
(dp1157
Vfood
p1158
g9
sg1154
g9
sg1155
g9
ssVrole
p1159
(dp1160
g1155
g6
ssVreigning
p1161
(dp1162
g1154
g9
sg1155
g9
sssS'127'
p1163
(dp1164
Vperformer
p1165
(dp1166
Vprice
p1167
g6
ssVmeters
p1168
(dp1169
g1167
g9
sVservice
p1170
g9
ssVevents
p1171
(dp1172
g1167
g9
sVatmosphere
p1173
g9
sg1170
g9
sssS'128'
p1174
(dp1175
Vboundaries
p1176
(dp1177
Vambiance
p1178
g6
sssS'129'
p1179
(dp1180
sS'319'
p1181
(dp1182
VReturns
p1183
(dp1184
Vserve
p1185
g9
ssVwishes
p1186
(dp1187
g1185
g9
sVservice
p1188
g9
sssS'318'
p1189
(dp1190
Vcricket
p1191
(dp1192
Vservice
p1193
g9
sssS'313'
p1194
(dp1195
Vpersonality
p1196
(dp1197
Vatmosphere
p1198
g6
sssS'312'
p1199
(dp1200
Vexperiences
p1201
(dp1202
Vfood
p1203
g6
sssS'311'
p1204
(dp1205
sS'310'
p1206
(dp1207
sS'317'
p1208
(dp1209
Vlegend
p1210
(dp1211
Vprice
p1212
g9
sssS'316'
p1213
(dp1214
sS'315'
p1215
(dp1216
Vwishes
p1217
(dp1218
Vservice
p1219
g9
sssS'314'
p1220
(dp1221
sS'3'
p1222
(dp1223
Vrace
p1224
(dp1225
Vservice
p1226
g9
ssVbuffalo
p1227
(dp1228
Vfood
p1229
g9
sg1226
g9
sssS'368'
p1230
(dp1231
sS'369'
p1232
(dp1233
sS'366'
p1234
(dp1235
sS'367'
p1236
(dp1237
sS'364'
p1238
(dp1239
sS'365'
p1240
(dp1241
sS'362'
p1242
(dp1243
Vtreatment
p1244
(dp1245
Vservice
p1246
g9
sssS'363'
p1247
(dp1248
sS'360'
p1249
(dp1250
Vtributes
p1251
(dp1252
Vservice
p1253
g6
ssVus
p1254
(dp1255
Vambiance
p1256
g9
sg1253
g9
ssVinspiration
p1257
(dp1258
Vfood
p1259
g9
sg1256
g9
sg1253
g9
sssS'361'
p1260
(dp1261
sS'380'
p1262
(dp1263
sS'381'
p1264
(dp1265
sS'382'
p1266
(dp1267
Vanniversary
p1268
(dp1269
Vfood
p1270
g9
sssS'383'
p1271
(dp1272
sS'384'
p1273
(dp1274
Vyouth
p1275
(dp1276
Vatmosphere
p1277
g9
sVservice
p1278
g9
ssVPresident
p1279
(dp1280
g1277
g6
sg1278
g6
ssVWriter
p1281
(dp1282
g1277
g9
sg1278
g9
ssVChairman
p1283
(dp1284
g1278
g9
sssS'385'
p1285
(dp1286
Vservices
p1287
(dp1288
Vfood
p1289
g44
sVservice
p1290
g44
ssVworkers
p1291
(dp1292
g1289
g9
sg1290
g9
ssVlives
p1293
(dp1294
g1289
g44
sssS'386'
p1295
(dp1296
Vmosquitos
p1297
(dp1298
Vservice
p1299
g9
sssS'387'
p1300
(dp1301
sS'388'
p1302
(dp1303
Vways
p1304
(dp1305
Vatmosphere
p1306
g6
sssS'389'
p1307
(dp1308
sS'60'
p1309
(dp1310
sS'61'
p1311
(dp1312
Vgame
p1313
(dp1314
Vservice
p1315
g6
ssVNobody
p1316
(dp1317
g1315
g9
sssS'258'
p1318
(dp1319
Vfamily
p1320
(dp1321
Vmilitary_service
p1322
g6
sssS'259'
p1323
(dp1324
sS'64'
p1325
(dp1326
Vmusician
p1327
(dp1328
Vprice
p1329
g44
sssS'65'
p1330
(dp1331
VMinister
p1332
(dp1333
Vservice
p1334
g6
sssS'66'
p1335
(dp1336
Vtold
p1337
(dp1338
Vprice
p1339
g9
sssS'67'
p1340
(dp1341
g625
(dp1342
Vfood
p1343
g9
ssVreceived
p1344
(dp1345
g1343
g9
sVprice
p1346
g9
ssVeducation
p1347
(dp1348
g1343
g6
sg1346
g6
sVservice
p1349
g6
sssS'68'
p1350
(dp1351
Vscientist
p1352
(dp1353
Vservice
p1354
g6
sssS'69'
p1355
(dp1356
Vsinger
p1357
(dp1358
Vprice
p1359
g6
sssS'250'
p1360
(dp1361
VLife
p1362
(dp1363
Vfood
p1364
g9
ssVfragile
p1365
(dp1366
g1364
g9
sssS'251'
p1367
(dp1368
VCondolences
p1369
(dp1370
Vfood
p1371
g9
sVprice
p1372
g9
sVambiance
p1373
g9
ssVmost
p1374
(dp1375
g1371
g9
sg1372
g9
sg1373
g9
sVservice
p1376
g9
ssVCharm
p1377
(dp1378
g1371
g9
sg1373
g9
ssVlot
p1379
(dp1380
g1373
g6
ssVconnected
p1381
(dp1382
g1371
g9
sg1372
g9
sg1373
g9
sg1376
g9
ssVcelebration
p1383
(dp1384
g1371
g6
sg1372
g6
sg1373
g6
sg1376
g6
sssS'256'
p1385
(dp1386
sS'257'
p1387
(dp1388
sS'254'
p1389
(dp1390
Voperations
p1391
(dp1392
Vatmosphere
p1393
g9
sVambiance
p1394
g9
sVmilitary_service
p1395
g9
sVservice
p1396
g9
ssVpersonnel
p1397
(dp1398
g1393
g9
sg1394
g9
sg1395
g9
ssVState
p1399
(dp1400
g1393
g9
sg1394
g9
ssVDestination
p1401
(dp1402
Vfood
p1403
g9
sg1393
g9
sg1394
g9
sg1395
g9
sg1396
g9
ssVKarnataka
p1404
(dp1405
g1394
g9
sssS'255'
p1406
(dp1407
sS'168'
p1408
(dp1409
sS'169'
p1410
(dp1411
sS'164'
p1412
(dp1413
sS'165'
p1414
(dp1415
sS'166'
p1416
(dp1417
Vactor
p1418
(dp1419
Vservice
p1420
g6
sssS'167'
p1421
(dp1422
sS'160'
p1423
(dp1424
VLit
p1425
(dp1426
Vfood
p1427
g9
sssS'161'
p1428
(dp1429
Vtalents
p1430
(dp1431
Vservice
p1432
g6
ssVwriters
p1433
(dp1434
g1432
g6
sssS'162'
p1435
(dp1436
Vgame
p1437
(dp1438
Vservice
p1439
g44
sssS'163'
p1440
(dp1441
sS'9'
p1442
(dp1443
Vcontemplate
p1444
(dp1445
Vprice
p1446
g9
sssS'357'
p1447
(dp1448
Vsouls
p1449
(dp1450
Vservice
p1451
g6
sssS'356'
p1452
(dp1453
sS'355'
p1454
(dp1455
sS'354'
p1456
(dp1457
sS'353'
p1458
(dp1459
sS'352'
p1460
(dp1461
Vdates
p1462
(dp1463
Vfood
p1464
g9
sssS'351'
p1465
(dp1466
VPresident
p1467
(dp1468
Vservice
p1469
g44
ssVIndia
p1470
(dp1471
Vambiance
p1472
g9
sg1469
g9
sssS'350'
p1473
(dp1474
VRevolution
p1475
(dp1476
Vservice
p1477
g44
sssS'359'
p1478
(dp1479
sS'358'
p1480
(dp1481
Vscientist
p1482
(dp1483
Vservice
p1484
g6
ssVdemise
p1485
(dp1486
Vfood
p1487
g6
sg1484
g6
sssS'216'
p1488
(dp1489
sS'217'
p1490
(dp1491
Vexperiments
p1492
(dp1493
Vfood
p1494
g9
sVservice
p1495
g9
ssVastronomy
p1496
(dp1497
g1494
g44
sssS'214'
p1498
(dp1499
sS'215'
p1500
(dp1501
Vrecovery
p1502
(dp1503
Vservice
p1504
g6
sssS'212'
p1505
(dp1506
VThere
p1507
(dp1508
Vambiance
p1509
g9
sssS'213'
p1510
(dp1511
Vcategory
p1512
(dp1513
Vfood
p1514
g6
sssS'210'
p1515
(dp1516
Vcakewalk
p1517
(dp1518
Vservice
p1519
g44
sssS'211'
p1520
(dp1521
VSafe
p1522
(dp1523
Vservice
p1524
g44
sssS'218'
p1525
(dp1526
VMay
p1527
(dp1528
Vservice
p1529
g9
ssVGaming
p1530
(dp1531
g1529
g6
sssS'219'
p1532
(dp1533
Vboost
p1534
(dp1535
Voverhaul
p1536
g9
sVambiance
p1537
g9
sVservice
p1538
g9
ssVStartups
p1539
(dp1540
g1536
g6
ssVIndia
p1541
(dp1542
g1536
g9
sg1537
g9
sssS'289'
p1543
(dp1544
Vwelcome
p1545
(dp1546
Vatmosphere
p1547
g9
sssS'288'
p1548
(dp1549
Vyear
p1550
(dp1551
Vmilitary_service
p1552
g6
sssS'4'
p1553
(dp1554
Vgirl
p1555
(dp1556
Vservice
p1557
g6
ssVwhole
p1558
(dp1559
Vfood
p1560
g9
sg1557
g9
sssS'281'
p1561
(dp1562
Vtype
p1563
(dp1564
Vmilitary_service
p1565
g44
sVservice
p1566
g44
ssVpeople
p1567
(dp1568
g1565
g44
sssS'280'
p1569
(dp1570
sS'283'
p1571
(dp1572
VDentist
p1573
(dp1574
Vservice
p1575
g9
sssS'282'
p1576
(dp1577
Vwish
p1578
(dp1579
Vservice
p1580
g9
sssS'285'
p1581
(dp1582
Vcandidates
p1583
(dp1584
Vservice
p1585
g44
sssS'284'
p1586
(dp1587
Vactor
p1588
(dp1589
Vservice
p1590
g6
sssS'287'
p1591
(dp1592
sS'286'
p1593
(dp1594
sS'263'
p1595
(dp1596
Vwho
p1597
(dp1598
Vmilitary_service
p1599
g9
sVservice
p1600
g9
ssVvictims
p1601
(dp1602
g1600
g44
sssS'262'
p1603
(dp1604
sS'261'
p1605
(dp1606
sS'260'
p1607
(dp1608
VLIFE
p1609
(dp1610
Vfood
p1611
g9
ssVreason
p1612
(dp1613
g1611
g9
sVatmosphere
p1614
g9
sssS'267'
p1615
(dp1616
sS'266'
p1617
(dp1618
Vwin
p1619
(dp1620
Vservice
p1621
g9
ssVstraight
p1622
(dp1623
g1621
g9
sssS'265'
p1624
(dp1625
sS'264'
p1626
(dp1627
sS'269'
p1628
(dp1629
Vresponsibility
p1630
(dp1631
Vservice
p1632
g6
sssS'268'
p1633
(dp1634
Vhome
p1635
(dp1636
Vmilitary_service
p1637
g9
sssS'59'
p1638
(dp1639
Vplayer
p1640
(dp1641
Vprice
p1642
g6
sssS'58'
p1643
(dp1644
Vbridge
p1645
(dp1646
Vservice
p1647
g44
sssS'55'
p1648
(dp1649
sS'54'
p1650
(dp1651
Vsuccess
p1652
(dp1653
Vservice
p1654
g6
sssS'57'
p1655
(dp1656
Vsolver
p1657
(dp1658
Vservice
p1659
g9
sssS'56'
p1660
(dp1661
sS'51'
p1662
(dp1663
sS'50'
p1664
(dp1665
sS'53'
p1666
(dp1667
Vduty
p1668
(dp1669
Vservice
p1670
g6
sssS'52'
p1671
(dp1672
Vsociety
p1673
(dp1674
Vmilitary_service
p1675
g6
sssS'63'
p1676
(dp1677
Vfilm
p1678
(dp1679
Vservice
p1680
g6
sssS'115'
p1681
(dp1682
VBritain
p1683
(dp1684
Vatmosphere
p1685
g9
sVambiance
p1686
g9
sVprice
p1687
g9
ssVaward
p1688
(dp1689
g1685
g9
sg1687
g9
ssVwonder
p1690
(dp1691
g1685
g6
sssS'252'
p1692
(dp1693
sS'117'
p1694
(dp1695
VConservation
p1696
(dp1697
Vservice
p1698
g9
ssVcontributions
p1699
(dp1700
g1698
g9
sssS'116'
p1701
(dp1702
sS'111'
p1703
(dp1704
Vcinema
p1705
(dp1706
Vservice
p1707
g6
sssS'110'
p1708
(dp1709
Vopportunity
p1710
(dp1711
Vatmosphere
p1712
g9
sssS'113'
p1713
(dp1714
Vtea
p1715
(dp1716
Vfood
p1717
g6
sssS'253'
p1718
(dp1719
Vwho
p1720
(dp1721
Vmilitary_service
p1722
g9
ssVyoung
p1723
(dp1724
Vprice
p1725
g9
sg1722
g9
sssS'119'
p1726
(dp1727
sS'118'
p1728
(dp1729
Vwoman
p1730
(dp1731
Vservice
p1732
g6
ssVleader
p1733
(dp1734
g1732
g6
sssS'308'
p1735
(dp1736
sS'309'
p1737
(dp1738
sS'300'
p1739
(dp1740
Vus
p1741
(dp1742
Vambiance
p1743
g9
ssVsocial
p1744
(dp1745
g1743
g9
sVmilitary_service
p1746
g9
sssS'301'
p1747
(dp1748
Vincarnations
p1749
(dp1750
Vfood
p1751
g6
sssS'302'
p1752
(dp1753
Vmankind
p1754
(dp1755
Vmilitary_service
p1756
g9
ssVservice
p1757
(dp1758
g1756
g6
sVservice
p1759
g6
ssVdoctors
p1760
(dp1761
g1756
g9
sg1759
g9
sssS'303'
p1762
(dp1763
sS'304'
p1764
(dp1765
sS'305'
p1766
(dp1767
VCountry
p1768
(dp1769
Vambiance
p1770
g9
ssVIndia
p1771
(dp1772
g1770
g9
sssS'306'
p1773
(dp1774
Vjokes
p1775
(dp1776
Vservice
p1777
g9
ssVr
p1778
(dp1779
Vatmosphere
p1780
g6
sg1777
g6
sssS'307'
p1781
(dp1782
Vactor
p1783
(dp1784
Vservice
p1785
g6
sssS'229'
p1786
(dp1787
sS'228'
p1788
(dp1789
sS'227'
p1790
(dp1791
sS'226'
p1792
(dp1793
sS'225'
p1794
(dp1795
sS'224'
p1796
(dp1797
Vu
p1798
(dp1799
Vfood
p1800
g9
ssVhappiness
p1801
(dp1802
g1800
g9
sVatmosphere
p1803
g9
sssS'223'
p1804
(dp1805
Vreturns
p1806
(dp1807
Vfood
p1808
g44
sVserve
p1809
g44
ssg1798
(dp1810
g1808
g9
sssS'222'
p1811
(dp1812
Vlives
p1813
(dp1814
Vfood
p1815
g9
sssS'221'
p1816
(dp1817
VA
p1818
(dp1819
Vfood
p1820
g44
sVservice
p1821
g44
ssVman
p1822
(dp1823
g1821
g44
sssS'220'
p1824
(dp1825
sS'114'
p1826
(dp1827
Vby-product
p1828
(dp1829
Vservice
p1830
g9
sssS'391'
p1831
(dp1832
sS'390'
p1833
(dp1834
Vsports
p1835
(dp1836
Vservice
p1837
g6
sssS'151'
p1838
(dp1839
sS'150'
p1840
(dp1841
Vday
p1842
(dp1843
Vservice
p1844
g44
ssVmartyrdom
p1845
(dp1846
g1844
g44
sssS'153'
p1847
(dp1848
Vcome
p1849
(dp1850
Vfood
p1851
g9
sssS'152'
p1852
(dp1853
Vlove
p1854
(dp1855
Vprice
p1856
g6
sVatmosphere
p1857
g6
sVservice
p1858
g6
sVservicing
p1859
g6
ssVcheer
p1860
(dp1861
g1856
g6
ssVsunshine
p1862
(dp1863
g1856
g9
sg1857
g9
sg1858
g9
ssVlaughter
p1864
(dp1865
g1856
g9
sg1858
g9
ssVwarmth
p1866
(dp1867
g1856
g6
sg1857
g6
sg1858
g6
sssS'155'
p1868
(dp1869
sS'154'
p1870
(dp1871
sS'157'
p1872
(dp1873
VMarch
p1874
(dp1875
Vserve
p1876
g44
sssS'156'
p1877
(dp1878
Vawards
p1879
(dp1880
Vprice
p1881
g6
sssS'159'
p1882
(dp1883
Vage
p1884
(dp1885
Vatmosphere
p1886
g44
sssS'158'
p1887
(dp1888
sS'112'
p1889
(dp1890
sS'83'
p1891
(dp1892
Vfather
p1893
(dp1894
Vservice
p1895
g6
sssS'48'
p1896
(dp1897
sS'49'
p1898
(dp1899
Vthing
p1900
(dp1901
Vfood
p1902
g44
ssVVishnu
p1903
(dp1904
g1902
g9
sssS'46'
p1905
(dp1906
Vtheater
p1907
(dp1908
Vambiance
p1909
g44
ssVroots
p1910
(dp1911
Vatmosphere
p1912
g44
sg1909
g44
sssS'47'
p1913
(dp1914
Vlimitations
p1915
(dp1916
Vserve
p1917
g44
sVservice
p1918
g44
ssVtour
p1919
(dp1920
g1917
g44
sssS'44'
p1921
(dp1922
sS'45'
p1923
(dp1924
sS'42'
p1925
(dp1926
Vsociety
p1927
(dp1928
Vatmosphere
p1929
g6
sVmilitary_service
p1930
g6
ssVhealth
p1931
(dp1932
g1929
g6
sssS'43'
p1933
(dp1934
g625
(dp1935
Vfood
p1936
g9
ssVworried
p1937
(dp1938
g1936
g9
sVprice
p1939
g9
sssS'40'
p1940
(dp1941
sS'41'
p1942
(dp1943
sS'5'
p1944
(dp1945
Vcontribution
p1946
(dp1947
Vservice
p1948
g6
ssVmusic
p1949
(dp1950
g1948
g6
ssVSoul
p1951
(dp1952
g1948
g9
sss.